(dp0
S'learn_scores'
p1
(lp2
F-389.0
aF-392.0
aF-383.0
aF-407.0
aF-251.0
aF-343.0
aF-304.0
aF-411.0
aF-242.0
aF-405.0
aF-427.0
aF-331.0
aF-437.0
aF-436.0
aF-402.0
aF350.0
aF-442.0
aF-416.0
aF-295.0
aF-412.0
aF-408.0
aF-333.0
aF-300.0
aF-477.0
aF-369.0
aF-239.0
aF-112.0
aF-340.0
aF-410.0
aF-412.0
aF105.0
aF-323.0
aF-57.0
aF-323.0
aF-327.0
aF-446.0
aF-306.0
aF-383.0
aF-171.0
aF-355.0
aF-442.0
aF-414.0
aF-402.0
aF107.0
aF-318.0
aF-410.0
aF-334.0
aF-442.0
aF-427.0
aF-352.0
aF-420.0
aF-127.0
aF-412.0
aF-409.0
aF-340.0
aF-358.0
aF-261.0
aF-393.0
aF-430.0
aF-425.0
aF-434.0
aF-400.0
aF-340.0
aF-420.0
aF-419.0
aF-301.0
aF-339.0
aF-395.0
aF-375.0
aF-205.0
aF-400.0
aF-372.0
aF-319.0
aF-424.0
aF-436.0
aF-414.0
aF-387.0
aF-452.0
aF-323.0
aF-451.0
aF-307.0
aF-139.0
aF-355.0
aF-393.0
aF-471.0
aF-402.0
aF-456.0
aF-453.0
aF-438.0
aF-85.0
aF-385.0
aF-415.0
aF-430.0
aF12.0
aF-399.0
aF-376.0
aF-446.0
aF-453.0
aF-387.0
aF-366.0
asS'test_scores'
p3
(lp4
F-343.0
aF-375.0
aF-469.0
aF-474.0
aF-431.0
aF-448.0
aF-377.0
aF-252.0
aF207.0
aF-365.0
aF-423.0
aF-302.0
aF-250.0
aF-285.0
aF44.0
asS'behavior_count'
p5
(dp6
I1
(dp7
S'FleeBehavior'
p8
(lp9
I12
aI1
aI3
aI16
aI41
aI2
aI0
aI0
aI7
aI0
aI1
aI0
aI0
aI1
aI0
aI20
aI0
aI2
aI1
aI1
aI0
aI1
aI1
aI1
aI0
aI1
aI21
aI36
aI6
aI6
aI43
aI1
aI29
aI0
aI0
aI1
aI0
aI1
aI15
aI0
aI2
aI0
aI3
aI8
aI2
aI0
aI2
aI3
aI0
aI2
aI1
aI4
aI2
aI2
aI0
aI2
aI0
aI3
aI0
aI0
aI1
aI2
aI0
aI3
aI1
aI2
aI2
aI1
aI4
aI16
aI1
aI1
aI2
aI0
aI1
aI2
aI0
aI0
aI2
aI1
aI2
aI16
aI3
aI0
aI0
aI3
aI2
aI0
aI0
aI18
aI5
aI7
aI1
aI9
aI5
aI1
aI0
aI1
aI0
aI2
aI0
aI0
aI0
aI0
aI0
aI0
aI0
aI0
aI1
aI0
aI0
aI0
aI0
aI0
aI7
asS'PursueBehavior'
p10
(lp11
I9
aI20
aI20
aI0
aI25
aI2
aI5
aI31
aI39
aI3
aI24
aI27
aI37
aI24
aI22
aI62
aI13
aI34
aI31
aI3
aI0
aI3
aI15
aI13
aI7
aI31
aI1
aI3
aI4
aI29
aI18
aI0
aI17
aI40
aI45
aI14
aI34
aI20
aI85
aI25
aI29
aI22
aI26
aI49
aI61
aI18
aI52
aI9
aI27
aI30
aI18
aI118
aI17
aI28
aI27
aI33
aI68
aI20
aI20
aI13
aI24
aI27
aI39
aI26
aI29
aI39
aI32
aI24
aI32
aI54
aI19
aI27
aI56
aI24
aI31
aI21
aI27
aI12
aI30
aI21
aI45
aI46
aI51
aI23
aI16
aI30
aI9
aI9
aI10
aI46
aI1
aI0
aI1
aI12
aI1
aI3
aI1
aI1
aI0
aI1
aI0
aI0
aI0
aI0
aI0
aI0
aI0
aI0
aI0
aI0
aI0
aI0
aI0
aI0
aI0
asS'SeekBehavior'
p12
(lp13
I8
aI1
aI0
aI1
aI15
aI29
aI30
aI0
aI17
aI22
aI3
aI4
aI1
aI2
aI1
aI49
aI0
aI0
aI3
aI18
aI28
aI29
aI55
aI3
aI23
aI57
aI21
aI11
aI21
aI18
aI55
aI63
aI32
aI3
aI12
aI1
aI2
aI2
aI2
aI1
aI2
aI2
aI3
aI17
aI6
aI2
aI11
aI1
aI1
aI0
aI2
aI5
aI3
aI0
aI4
aI4
aI3
aI0
aI1
aI2
aI0
aI1
aI2
aI2
aI0
aI0
aI6
aI0
aI0
aI5
aI0
aI5
aI2
aI1
aI4
aI2
aI1
aI0
aI2
aI0
aI1
aI8
aI1
aI1
aI5
aI10
aI15
aI5
aI8
aI122
aI19
aI38
aI8
aI137
aI23
aI32
aI16
aI22
aI27
aI34
aI43
aI46
aI19
aI15
aI42
aI29
aI37
aI62
aI93
aI45
aI23
aI52
aI61
aI76
aI110
assI2
(dp14
S'FleeBehavior'
p15
(lp16
I7
aI21
aI20
aI15
aI58
aI33
aI32
aI27
aI55
aI22
aI24
aI11
aI33
aI1
aI0
aI35
aI1
aI0
aI3
aI0
aI2
aI1
aI1
aI0
aI3
aI10
aI7
aI2
aI3
aI0
aI12
aI53
aI36
aI35
aI47
aI15
aI35
aI18
aI45
aI1
aI0
aI0
aI1
aI8
aI6
aI0
aI4
aI0
aI3
aI0
aI0
aI3
aI0
aI0
aI0
aI2
aI1
aI0
aI2
aI0
aI1
aI1
aI2
aI2
aI0
aI0
aI0
aI1
aI0
aI2
aI1
aI3
aI4
aI0
aI1
aI0
aI2
aI0
aI1
aI0
aI2
aI13
aI1
aI1
aI1
aI2
aI0
aI1
aI3
aI10
aI12
aI6
aI3
aI44
aI9
aI13
aI0
aI0
aI1
aI1
aI0
aI0
aI0
aI0
aI0
aI0
aI0
aI0
aI13
aI0
aI0
aI0
aI0
aI0
aI0
asS'PursueBehavior'
p17
(lp18
I7
aI1
aI1
aI1
aI22
aI0
aI1
aI3
aI3
aI1
aI3
aI19
aI4
aI23
aI22
aI80
aI12
aI36
aI30
aI22
aI25
aI32
aI67
aI17
aI27
aI79
aI28
aI48
aI27
aI49
aI85
aI7
aI20
aI4
aI10
aI1
aI1
aI3
aI55
aI25
aI31
aI21
aI31
aI58
aI31
aI19
aI60
aI13
aI24
aI32
aI20
aI119
aI22
aI29
aI31
aI36
aI69
aI21
aI19
aI15
aI21
aI29
aI37
aI27
aI27
aI38
aI37
aI24
aI36
aI34
aI18
aI29
aI54
aI25
aI35
aI25
aI26
aI12
aI32
aI21
aI43
aI33
aI53
aI23
aI18
aI38
aI26
aI12
aI15
aI132
aI13
aI37
aI7
aI74
aI20
aI20
aI17
aI24
aI26
aI36
aI43
aI46
aI19
aI14
aI42
aI29
aI37
aI62
aI77
aI45
aI23
aI52
aI61
aI76
aI77
asS'SeekBehavior'
p19
(lp20
I15
aI0
aI2
aI1
aI1
aI0
aI2
aI1
aI4
aI2
aI0
aI1
aI1
aI3
aI1
aI16
aI0
aI0
aI2
aI0
aI1
aI0
aI3
aI0
aI0
aI0
aI8
aI0
aI1
aI4
aI18
aI4
aI21
aI4
aI0
aI0
aI0
aI2
aI2
aI0
aI1
aI3
aI0
aI7
aI32
aI1
aI1
aI0
aI0
aI0
aI1
aI5
aI0
aI1
aI0
aI1
aI1
aI2
aI0
aI0
aI2
aI0
aI1
aI2
aI3
aI3
aI2
aI0
aI0
aI39
aI1
aI1
aI2
aI0
aI0
aI0
aI0
aI0
aI1
aI1
aI3
aI23
aI1
aI0
aI2
aI3
aI0
aI0
aI0
aI44
aI0
aI2
aI0
aI40
aI0
aI3
aI0
aI0
aI0
aI0
aI0
aI0
aI0
aI0
aI0
aI0
aI0
aI0
aI4
aI0
aI0
aI0
aI0
aI0
aI39
assI3
(dp21
S'FleeBehavior'
p22
(lp23
I5
aI4
aI20
aI1
aI24
aI2
aI3
aI2
aI11
aI24
aI25
aI27
aI31
aI26
aI20
aI72
aI0
aI2
aI1
aI0
aI1
aI0
aI0
aI1
aI0
aI1
aI6
aI28
aI28
aI47
aI99
aI53
aI55
aI4
aI41
aI1
aI4
aI1
aI14
aI2
aI2
aI2
aI0
aI2
aI1
aI0
aI1
aI1
aI1
aI1
aI1
aI6
aI0
aI0
aI0
aI0
aI3
aI0
aI2
aI0
aI1
aI2
aI3
aI0
aI0
aI1
aI4
aI1
aI1
aI2
aI1
aI2
aI2
aI8
aI26
aI23
aI28
aI12
aI32
aI22
aI43
aI39
aI53
aI23
aI18
aI42
aI26
aI11
aI17
aI131
aI25
aI42
aI10
aI118
aI26
aI33
aI17
aI22
aI25
aI34
aI43
aI45
aI19
aI14
aI42
aI29
aI37
aI62
aI60
aI45
aI23
aI52
aI61
aI76
aI98
asS'PursueBehavior'
p24
(lp25
I19
aI17
aI2
aI16
aI44
aI20
aI7
aI8
aI40
aI0
aI0
aI1
aI4
aI1
aI2
aI24
aI12
aI32
aI33
aI21
aI24
aI33
aI69
aI16
aI28
aI86
aI17
aI7
aI1
aI1
aI4
aI5
aI14
aI2
aI4
aI2
aI0
aI0
aI27
aI0
aI1
aI1
aI2
aI13
aI16
aI18
aI63
aI11
aI26
aI30
aI19
aI119
aI20
aI28
aI29
aI36
aI66
aI23
aI19
aI14
aI21
aI28
aI35
aI31
aI28
aI39
aI32
aI11
aI35
aI65
aI5
aI1
aI3
aI2
aI1
aI1
aI0
aI0
aI2
aI0
aI2
aI29
aI1
aI0
aI3
aI0
aI0
aI1
aI0
aI47
aI0
aI3
aI0
aI38
aI0
aI1
aI0
aI1
aI1
aI2
aI0
aI0
aI0
aI0
aI0
aI0
aI0
aI0
aI33
aI0
aI0
aI0
aI0
aI0
aI18
asS'SeekBehavior'
p26
(lp27
I5
aI1
aI1
aI0
aI13
aI11
aI25
aI21
aI11
aI1
aI2
aI3
aI2
aI0
aI1
aI34
aI0
aI2
aI1
aI1
aI3
aI0
aI2
aI0
aI1
aI2
aI20
aI15
aI2
aI5
aI12
aI6
aI8
aI37
aI12
aI13
aI32
aI22
aI60
aI24
aI29
aI21
aI30
aI58
aI52
aI2
aI1
aI0
aI0
aI1
aI1
aI2
aI2
aI1
aI2
aI2
aI2
aI0
aI0
aI1
aI2
aI0
aI2
aI0
aI2
aI1
aI3
aI13
aI0
aI8
aI14
aI30
aI55
aI14
aI9
aI0
aI0
aI0
aI0
aI0
aI2
aI1
aI1
aI1
aI0
aI1
aI0
aI1
aI1
aI7
aI0
aI0
aI0
aI2
aI3
aI2
aI0
aI0
aI1
aI1
aI0
aI0
aI0
aI0
aI0
aI0
aI0
aI0
aI0
aI0
aI0
aI0
aI0
aI0
aI0
assI4
(dp28
S'FleeBehavior'
p29
(lp30
I5
aI20
aI23
aI14
aI54
aI1
aI1
aI28
aI50
aI19
aI2
aI2
aI4
aI1
aI0
aI25
aI1
aI2
aI6
aI20
aI23
aI22
aI10
aI6
aI17
aI18
aI31
aI42
aI29
aI52
aI93
aI6
aI7
aI2
aI4
aI3
aI9
aI0
aI6
aI2
aI1
aI1
aI3
aI14
aI33
aI11
aI13
aI3
aI3
aI7
aI4
aI32
aI7
aI0
aI2
aI3
aI5
aI4
aI4
aI12
aI20
aI20
aI14
aI4
aI10
aI27
aI24
aI14
aI20
aI63
aI18
aI31
aI55
aI9
aI13
aI5
aI3
aI3
aI12
aI3
aI6
aI15
aI11
aI5
aI1
aI5
aI9
aI4
aI11
aI89
aI24
aI40
aI4
aI46
aI15
aI26
aI16
aI18
aI21
aI32
aI43
aI45
aI19
aI14
aI41
aI28
aI37
aI54
aI46
aI45
aI23
aI51
aI61
aI73
aI80
asS'PursueBehavior'
p31
(lp32
I8
aI1
aI0
aI0
aI5
aI1
aI2
aI1
aI6
aI0
aI0
aI2
aI3
aI11
aI22
aI75
aI1
aI2
aI11
aI1
aI1
aI1
aI6
aI3
aI4
aI62
aI6
aI4
aI2
aI1
aI2
aI3
aI9
aI3
aI0
aI0
aI2
aI2
aI6
aI0
aI1
aI0
aI2
aI11
aI3
aI1
aI4
aI1
aI1
aI1
aI0
aI6
aI0
aI2
aI2
aI1
aI2
aI0
aI1
aI0
aI0
aI1
aI2
aI1
aI1
aI3
aI1
aI0
aI0
aI7
aI1
aI1
aI1
aI2
aI2
aI0
aI0
aI0
aI1
aI0
aI0
aI5
aI1
aI1
aI0
aI4
aI0
aI0
aI1
aI42
aI1
aI2
aI0
aI40
aI1
aI1
aI1
aI1
aI0
aI2
aI0
aI0
aI0
aI0
aI0
aI0
aI0
aI0
aI40
aI0
aI0
aI0
aI0
aI0
aI29
asS'SeekBehavior'
p33
(lp34
I16
aI1
aI0
aI3
aI22
aI31
aI32
aI2
aI6
aI6
aI25
aI27
aI30
aI14
aI0
aI30
aI10
aI32
aI18
aI1
aI4
aI10
aI55
aI8
aI8
aI9
aI6
aI4
aI0
aI0
aI20
aI54
aI61
aI38
aI53
aI13
aI25
aI21
aI89
aI24
aI30
aI23
aI27
aI48
aI33
aI8
aI47
aI8
aI23
aI24
aI17
aI89
aI15
aI27
aI26
aI34
aI64
aI19
aI16
aI3
aI4
aI9
aI24
aI25
aI19
aI11
aI14
aI11
aI15
aI5
aI1
aI1
aI3
aI13
aI21
aI19
aI24
aI9
aI21
aI18
aI41
aI49
aI43
aI18
aI20
aI33
aI17
aI9
aI6
aI54
aI0
aI3
aI6
aI72
aI13
aI9
aI0
aI4
aI6
aI2
aI0
aI0
aI0
aI0
aI0
aI0
aI0
aI8
aI7
aI0
aI0
aI1
aI0
aI3
aI7
asss.