(dp0
S'learn_scores'
p1
(lp2
F-459.0
aF-400.0
aF-354.0
aF-240.0
aF-130.0
aF-26.0
aF-411.0
aF-426.0
aF-422.0
aF-424.0
aF-401.0
aF-205.0
aF-396.0
aF-471.0
aF-371.0
aF-433.0
aF-322.0
aF-386.0
aF-426.0
aF-433.0
aF-359.0
aF-445.0
aF-364.0
aF-454.0
aF-447.0
aF-377.0
aF-352.0
aF-450.0
aF-401.0
aF-341.0
aF-464.0
aF-392.0
aF-381.0
aF-415.0
aF-354.0
aF-463.0
aF-446.0
aF-268.0
aF-422.0
aF-422.0
aF-454.0
aF-387.0
aF-347.0
aF-375.0
aF-395.0
aF-399.0
aF-315.0
aF35.0
aF-217.0
aF-417.0
aF-376.0
aF-364.0
aF-309.0
aF-461.0
aF-437.0
aF-451.0
aF-410.0
aF-366.0
aF-374.0
aF-385.0
aF-447.0
aF-140.0
aF-359.0
aF-380.0
aF-420.0
aF-305.0
aF-316.0
aF-382.0
aF55.0
aF-447.0
aF-401.0
aF-442.0
aF-475.0
aF-236.0
aF-360.0
aF-468.0
aF-452.0
aF-345.0
aF-403.0
aF-44.0
aF-302.0
aF-432.0
aF-390.0
aF-382.0
aF-392.0
aF-364.0
aF-838.0
aF-228.0
aF-416.0
aF-399.0
aF-471.0
aF-434.0
aF-466.0
aF-300.0
aF-390.0
aF-243.0
aF-327.0
aF-425.0
aF-435.0
aF-425.0
asS'test_scores'
p3
(lp4
F-376.0
aF-359.0
aF-451.0
aF-413.0
aF-310.0
aF-177.0
aF-311.0
aF-367.0
aF-427.0
aF-206.0
aF-376.0
aF144.0
aF-418.0
aF-384.0
aF-389.0
asS'behavior_count'
p5
(dp6
I1
(dp7
S'FleeBehavior'
p8
(lp9
I1
aI0
aI1
aI14
aI24
aI44
aI8
aI0
aI0
aI1
aI21
aI40
aI0
aI0
aI0
aI0
aI5
aI1
aI0
aI2
aI1
aI2
aI0
aI1
aI1
aI1
aI1
aI2
aI0
aI4
aI0
aI2
aI20
aI26
aI55
aI14
aI15
aI60
aI9
aI0
aI2
aI2
aI13
aI0
aI0
aI1
aI2
aI1
aI29
aI3
aI15
aI1
aI12
aI0
aI1
aI0
aI0
aI3
aI2
aI0
aI0
aI16
aI2
aI1
aI0
aI5
aI41
aI31
aI25
aI4
aI22
aI21
aI10
aI41
aI35
aI28
aI30
aI33
aI21
aI82
aI43
aI20
aI25
aI18
aI2
aI2
aI2
aI1
aI2
aI2
aI1
aI1
aI0
aI1
aI0
aI1
aI4
aI0
aI1
aI0
aI0
aI0
aI0
aI0
aI0
aI0
aI0
aI0
aI0
aI0
aI0
aI0
aI0
aI0
aI0
asS'PursueBehavior'
p10
(lp11
I7
aI31
aI23
aI37
aI63
aI13
aI8
aI0
aI1
aI2
aI2
aI26
aI1
aI2
aI1
aI2
aI3
aI1
aI0
aI2
aI0
aI1
aI0
aI1
aI3
aI0
aI2
aI2
aI2
aI0
aI0
aI3
aI8
aI0
aI5
aI39
aI0
aI38
aI2
aI1
aI2
aI0
aI7
aI0
aI2
aI1
aI1
aI23
aI4
aI1
aI3
aI4
aI13
aI3
aI10
aI10
aI29
aI52
aI40
aI33
aI16
aI104
aI33
aI24
aI10
aI35
aI14
aI4
aI22
aI2
aI1
aI0
aI1
aI1
aI3
aI1
aI1
aI1
aI2
aI8
aI3
aI1
aI1
aI6
aI25
aI27
aI43
aI35
aI23
aI24
aI19
aI43
aI14
aI38
aI21
aI47
aI41
aI16
aI14
aI15
aI36
aI39
aI21
aI43
aI48
aI102
aI50
aI47
aI27
aI66
aI37
aI119
aI19
aI22
aI38
asS'SeekBehavior'
p12
(lp13
I2
aI0
aI0
aI10
aI34
aI60
aI25
aI27
aI21
aI22
aI38
aI30
aI35
aI19
aI20
aI31
aI54
aI35
aI27
aI19
aI48
aI22
aI34
aI12
aI14
aI26
aI30
aI17
aI29
aI38
aI15
aI58
aI4
aI0
aI14
aI1
aI1
aI21
aI21
aI22
aI41
aI36
aI58
aI26
aI24
aI27
aI43
aI71
aI85
aI14
aI48
aI40
aI34
aI9
aI7
aI1
aI1
aI22
aI2
aI2
aI1
aI11
aI5
aI6
aI11
aI75
aI12
aI7
aI99
aI12
aI9
aI1
aI5
aI24
aI23
aI0
aI2
aI2
aI0
aI34
aI7
aI2
aI4
aI28
aI15
aI15
aI13
aI43
aI2
aI3
aI2
aI1
aI2
aI1
aI0
aI6
aI2
aI0
aI0
aI0
aI1
aI0
aI1
aI0
aI3
aI6
aI2
aI0
aI1
aI1
aI0
aI8
aI0
aI3
aI2
assI2
(dp14
S'FleeBehavior'
p15
(lp16
I1
aI12
aI21
aI41
aI63
aI38
aI14
aI0
aI3
aI15
aI52
aI53
aI1
aI0
aI2
aI1
aI7
aI3
aI2
aI2
aI0
aI2
aI5
aI1
aI0
aI0
aI1
aI1
aI2
aI1
aI1
aI2
aI4
aI0
aI6
aI2
aI0
aI4
aI9
aI15
aI34
aI33
aI60
aI16
aI23
aI26
aI38
aI26
aI91
aI15
aI39
aI30
aI54
aI11
aI17
aI11
aI29
aI72
aI42
aI33
aI12
aI83
aI25
aI27
aI20
aI68
aI28
aI8
aI61
aI2
aI8
aI1
aI0
aI5
aI6
aI1
aI0
aI3
aI4
aI44
aI43
aI21
aI29
aI48
aI41
aI41
aI54
aI78
aI22
aI26
aI21
aI39
aI15
aI34
aI17
aI51
aI41
aI15
aI15
aI13
aI37
aI39
aI21
aI43
aI51
aI107
aI52
aI47
aI28
aI67
aI37
aI98
aI19
aI24
aI40
asS'PursueBehavior'
p17
(lp18
I2
aI0
aI2
aI7
aI42
aI66
aI22
aI1
aI1
aI0
aI2
aI28
aI3
aI2
aI0
aI2
aI1
aI1
aI1
aI1
aI3
aI1
aI1
aI1
aI0
aI1
aI2
aI4
aI0
aI0
aI0
aI1
aI2
aI1
aI0
aI2
aI0
aI27
aI1
aI0
aI2
aI1
aI8
aI1
aI1
aI0
aI1
aI32
aI10
aI3
aI12
aI4
aI3
aI0
aI0
aI0
aI0
aI4
aI1
aI2
aI2
aI24
aI1
aI0
aI1
aI31
aI7
aI32
aI59
aI0
aI3
aI15
aI16
aI55
aI40
aI19
aI33
aI33
aI18
aI52
aI1
aI0
aI0
aI1
aI0
aI1
aI3
aI0
aI2
aI2
aI1
aI2
aI1
aI4
aI2
aI2
aI4
aI0
aI0
aI0
aI0
aI0
aI0
aI0
aI0
aI0
aI0
aI0
aI0
aI0
aI0
aI29
aI0
aI0
aI0
asS'SeekBehavior'
p19
(lp20
I7
aI19
aI1
aI12
aI16
aI13
aI5
aI26
aI18
aI10
aI7
aI14
aI32
aI19
aI19
aI30
aI54
aI33
aI24
aI20
aI46
aI22
aI28
aI12
aI18
aI26
aI30
aI15
aI29
aI41
aI13
aI60
aI26
aI25
aI68
aI50
aI16
aI88
aI22
aI8
aI9
aI3
aI10
aI9
aI2
aI3
aI7
aI37
aI16
aI0
aI15
aI11
aI2
aI1
aI1
aI0
aI1
aI1
aI1
aI0
aI3
aI24
aI13
aI3
aI0
aI16
aI32
aI2
aI26
aI16
aI21
aI6
aI0
aI6
aI15
aI9
aI0
aI0
aI1
aI28
aI9
aI2
aI1
aI3
aI1
aI2
aI1
aI1
aI3
aI1
aI0
aI4
aI0
aI2
aI2
aI1
aI2
aI1
aI0
aI2
aI0
aI0
aI0
aI0
aI0
aI0
aI0
aI0
aI0
aI0
aI0
aI0
aI0
aI0
aI0
assI3
(dp21
S'FleeBehavior'
p22
(lp23
I7
aI29
aI22
aI40
aI25
aI45
aI26
aI1
aI2
aI1
aI2
aI10
aI5
aI6
aI17
aI24
aI5
aI36
aI26
aI22
aI49
aI23
aI32
aI12
aI17
aI23
aI29
aI19
aI26
aI39
aI14
aI60
aI28
aI25
aI69
aI50
aI15
aI101
aI18
aI18
aI40
aI8
aI42
aI4
aI4
aI11
aI43
aI75
aI35
aI16
aI55
aI39
aI26
aI3
aI15
aI9
aI29
aI71
aI42
aI18
aI15
aI71
aI24
aI26
aI20
aI112
aI46
aI28
aI98
aI18
aI25
aI21
aI15
aI62
aI56
aI26
aI32
aI34
aI23
aI118
aI50
aI22
aI24
aI48
aI38
aI43
aI54
aI73
aI26
aI28
aI16
aI40
aI14
aI36
aI21
aI49
aI41
aI15
aI13
aI15
aI36
aI39
aI21
aI43
aI51
aI107
aI52
aI47
aI27
aI66
aI37
aI124
aI19
aI24
aI40
asS'PursueBehavior'
p24
(lp25
I1
aI0
aI1
aI3
aI43
aI21
aI14
aI25
aI19
aI20
aI34
aI68
aI1
aI1
aI1
aI1
aI3
aI1
aI0
aI1
aI0
aI0
aI1
aI1
aI1
aI2
aI2
aI1
aI1
aI2
aI0
aI1
aI3
aI0
aI2
aI3
aI0
aI6
aI4
aI1
aI2
aI2
aI6
aI0
aI0
aI1
aI1
aI9
aI44
aI2
aI5
aI2
aI15
aI0
aI0
aI2
aI1
aI3
aI0
aI1
aI0
aI38
aI3
aI1
aI0
aI0
aI2
aI0
aI26
aI0
aI1
aI0
aI0
aI1
aI2
aI3
aI0
aI0
aI0
aI5
aI1
aI0
aI1
aI2
aI3
aI1
aI2
aI3
aI0
aI1
aI3
aI2
aI1
aI2
aI0
aI2
aI4
aI0
aI1
aI0
aI0
aI0
aI0
aI0
aI0
aI0
aI0
aI0
aI0
aI0
aI0
aI3
aI0
aI0
aI0
asS'SeekBehavior'
p26
(lp27
I1
aI1
aI1
aI17
aI53
aI51
aI1
aI1
aI1
aI3
aI25
aI17
aI30
aI14
aI3
aI8
aI54
aI0
aI1
aI0
aI0
aI2
aI1
aI1
aI0
aI2
aI1
aI0
aI4
aI1
aI0
aI1
aI1
aI1
aI3
aI1
aI1
aI12
aI10
aI3
aI3
aI27
aI29
aI22
aI22
aI17
aI2
aI11
aI38
aI0
aI6
aI4
aI18
aI8
aI3
aI0
aI0
aI3
aI2
aI16
aI2
aI22
aI12
aI3
aI0
aI3
aI18
aI14
aI22
aI0
aI5
aI1
aI1
aI3
aI2
aI0
aI0
aI2
aI0
aI1
aI1
aI1
aI5
aI2
aI1
aI0
aI2
aI3
aI0
aI0
aI3
aI3
aI1
aI2
aI0
aI3
aI2
aI1
aI1
aI0
aI0
aI0
aI0
aI0
aI0
aI0
aI0
aI0
aI0
aI0
aI0
aI0
aI0
aI0
aI0
assI4
(dp28
S'FleeBehavior'
p29
(lp30
I7
aI21
aI1
aI19
aI60
aI43
aI1
aI1
aI0
aI2
aI3
aI13
aI25
aI20
aI20
aI28
aI57
aI35
aI26
aI21
aI46
aI24
aI32
aI13
aI17
aI27
aI30
aI17
aI29
aI40
aI12
aI58
aI29
aI23
aI69
aI49
aI16
aI73
aI26
aI20
aI43
aI33
aI71
aI7
aI22
aI3
aI10
aI36
aI90
aI0
aI8
aI31
aI8
aI2
aI0
aI0
aI0
aI3
aI1
aI0
aI1
aI9
aI3
aI2
aI2
aI20
aI19
aI31
aI73
aI18
aI30
aI22
aI12
aI64
aI57
aI26
aI27
aI34
aI23
aI84
aI47
aI20
aI25
aI26
aI40
aI41
aI53
aI75
aI25
aI17
aI21
aI42
aI14
aI35
aI19
aI51
aI44
aI14
aI15
aI14
aI36
aI39
aI21
aI43
aI51
aI107
aI52
aI47
aI27
aI66
aI36
aI112
aI19
aI24
aI40
asS'PursueBehavior'
p31
(lp32
I1
aI2
aI19
aI10
aI38
aI16
aI2
aI1
aI1
aI1
aI0
aI7
aI3
aI0
aI1
aI1
aI2
aI1
aI0
aI0
aI2
aI1
aI0
aI0
aI0
aI0
aI2
aI3
aI2
aI1
aI1
aI1
aI1
aI2
aI4
aI1
aI0
aI42
aI4
aI1
aI2
aI3
aI5
aI17
aI3
aI26
aI36
aI58
aI16
aI0
aI1
aI3
aI4
aI0
aI0
aI1
aI1
aI2
aI0
aI3
aI0
aI26
aI2
aI2
aI0
aI38
aI5
aI0
aI45
aI0
aI1
aI0
aI0
aI0
aI1
aI2
aI4
aI0
aI0
aI33
aI2
aI2
aI2
aI1
aI1
aI1
aI4
aI0
aI0
aI2
aI0
aI1
aI0
aI3
aI1
aI1
aI2
aI1
aI0
aI1
aI0
aI0
aI0
aI0
aI0
aI0
aI0
aI0
aI0
aI0
aI0
aI0
aI0
aI0
aI0
asS'SeekBehavior'
p33
(lp34
I1
aI7
aI4
aI31
aI23
aI57
aI38
aI25
aI21
aI21
aI58
aI75
aI8
aI1
aI0
aI4
aI3
aI0
aI0
aI2
aI1
aI0
aI2
aI1
aI0
aI0
aI0
aI0
aI0
aI1
aI1
aI3
aI2
aI1
aI1
aI3
aI0
aI4
aI2
aI1
aI0
aI1
aI1
aI1
aI0
aI0
aI0
aI1
aI11
aI17
aI57
aI10
aI47
aI9
aI17
aI10
aI29
aI71
aI43
aI32
aI16
aI95
aI34
aI26
aI18
aI57
aI42
aI11
aI28
aI0
aI0
aI0
aI3
aI2
aI2
aI1
aI1
aI2
aI0
aI7
aI3
aI0
aI3
aI25
aI1
aI2
aI1
aI3
aI1
aI10
aI0
aI2
aI2
aI2
aI1
aI2
aI1
aI1
aI0
aI0
aI0
aI0
aI0
aI0
aI0
aI0
aI0
aI0
aI0
aI0
aI0
aI15
aI0
aI0
aI0
asss.