(dp0
S'learn_scores'
p1
(lp2
F-403.0
aF-314.0
aF-282.0
aF-440.0
aF-315.0
aF-427.0
aF-404.0
aF-429.0
aF-409.0
aF-350.0
aF152.0
aF-435.0
aF-457.0
aF-449.0
aF-347.0
aF-390.0
aF-434.0
aF-386.0
aF-397.0
aF-404.0
aF-440.0
aF-386.0
aF-399.0
aF-320.0
aF-326.0
aF-464.0
aF-447.0
aF-438.0
aF-410.0
aF-402.0
aF-381.0
aF-347.0
aF-376.0
aF-227.0
aF-394.0
aF-398.0
aF-420.0
aF-411.0
aF-349.0
aF-395.0
aF462.0
aF331.0
aF-413.0
aF-396.0
aF-440.0
aF-431.0
aF-431.0
aF-372.0
aF-343.0
aF-402.0
aF-308.0
aF-418.0
aF-442.0
aF-244.0
aF-283.0
aF-475.0
aF-426.0
aF-188.0
aF-370.0
aF-461.0
aF-392.0
aF-452.0
aF-435.0
aF-58.0
aF-388.0
aF-297.0
aF-407.0
aF-406.0
aF-362.0
aF-448.0
aF-328.0
aF-398.0
aF-449.0
aF-402.0
aF-399.0
aF-98.0
aF-370.0
aF-474.0
aF-436.0
aF-427.0
aF-373.0
aF-342.0
aF-470.0
aF-368.0
aF-263.0
aF-454.0
aF-410.0
aF-378.0
aF-437.0
aF-389.0
aF-410.0
aF-445.0
aF-420.0
aF-347.0
aF-281.0
aF141.0
aF-287.0
aF-405.0
aF-358.0
aF-374.0
asS'test_scores'
p3
(lp4
F-229.0
aF-446.0
aF-421.0
aF-362.0
aF-385.0
aF-421.0
aF-430.0
aF-407.0
aF-435.0
aF-406.0
aF-462.0
aF-426.0
aF-285.0
aF-434.0
aF-196.0
asS'behavior_count'
p5
(dp6
I1
(dp7
S'FleeBehavior'
p8
(lp9
I8
aI2
aI24
aI1
aI1
aI1
aI0
aI1
aI2
aI0
aI10
aI21
aI5
aI0
aI3
aI10
aI1
aI2
aI1
aI0
aI2
aI2
aI5
aI36
aI32
aI0
aI12
aI1
aI2
aI0
aI3
aI6
aI1
aI5
aI6
aI11
aI17
aI20
aI46
aI21
aI114
aI16
aI1
aI3
aI1
aI1
aI1
aI1
aI2
aI1
aI1
aI1
aI1
aI26
aI0
aI1
aI2
aI41
aI1
aI0
aI0
aI1
aI1
aI39
aI2
aI1
aI1
aI0
aI0
aI0
aI6
aI0
aI0
aI4
aI2
aI23
aI4
aI1
aI1
aI0
aI2
aI2
aI0
aI2
aI4
aI1
aI1
aI1
aI0
aI1
aI2
aI0
aI1
aI13
aI26
aI49
aI3
aI4
aI2
aI1
aI0
aI0
aI0
aI0
aI0
aI0
aI0
aI0
aI0
aI0
aI0
aI0
aI0
aI0
aI0
asS'PursueBehavior'
p10
(lp11
I7
aI24
aI42
aI1
aI1
aI4
aI2
aI0
aI0
aI1
aI19
aI1
aI1
aI1
aI1
aI1
aI0
aI0
aI1
aI0
aI1
aI0
aI2
aI0
aI2
aI2
aI2
aI2
aI0
aI1
aI1
aI1
aI1
aI4
aI2
aI0
aI1
aI0
aI2
aI1
aI40
aI109
aI0
aI0
aI1
aI0
aI0
aI2
aI2
aI1
aI2
aI0
aI1
aI14
aI0
aI1
aI0
aI0
aI0
aI0
aI0
aI0
aI0
aI4
aI1
aI5
aI1
aI2
aI0
aI0
aI4
aI2
aI4
aI10
aI4
aI27
aI3
aI0
aI1
aI2
aI1
aI2
aI0
aI2
aI13
aI10
aI3
aI2
aI8
aI18
aI3
aI1
aI1
aI13
aI0
aI13
aI28
aI2
aI3
aI1
aI0
aI0
aI0
aI0
aI0
aI0
aI0
aI0
aI0
aI0
aI0
aI0
aI0
aI0
aI0
asS'SeekBehavior'
p12
(lp13
I8
aI9
aI36
aI19
aI33
aI43
aI23
aI18
aI27
aI29
aI79
aI4
aI12
aI9
aI54
aI30
aI13
aI35
aI26
aI35
aI18
aI54
aI53
aI5
aI3
aI12
aI34
aI26
aI39
aI21
aI17
aI40
aI24
aI99
aI37
aI17
aI2
aI1
aI2
aI4
aI45
aI45
aI32
aI34
aI8
aI21
aI21
aI50
aI29
aI20
aI56
aI37
aI10
aI34
aI44
aI23
aI14
aI77
aI40
aI22
aI33
aI12
aI15
aI76
aI36
aI41
aI26
aI35
aI33
aI19
aI79
aI26
aI26
aI18
aI24
aI49
aI24
aI14
aI24
aI15
aI40
aI49
aI21
aI55
aI87
aI24
aI26
aI36
aI9
aI21
aI25
aI15
aI19
aI52
aI26
aI48
aI37
aI30
aI63
aI43
aI70
aI16
aI32
aI43
aI26
aI31
aI21
aI38
aI16
aI16
aI32
aI27
aI65
aI25
aI97
assI2
(dp14
S'FleeBehavior'
p15
(lp16
I12
aI0
aI8
aI0
aI1
aI1
aI1
aI0
aI0
aI0
aI4
aI0
aI1
aI0
aI7
aI2
aI0
aI1
aI0
aI0
aI1
aI3
aI2
aI0
aI2
aI0
aI2
aI0
aI1
aI2
aI3
aI39
aI21
aI80
aI9
aI21
aI19
aI18
aI47
aI24
aI116
aI64
aI29
aI34
aI8
aI18
aI20
aI52
aI33
aI19
aI55
aI36
aI12
aI54
aI34
aI1
aI0
aI2
aI11
aI1
aI0
aI0
aI0
aI3
aI0
aI0
aI1
aI1
aI0
aI1
aI1
aI1
aI1
aI1
aI4
aI4
aI4
aI1
aI0
aI0
aI0
aI1
aI1
aI3
aI4
aI2
aI0
aI0
aI0
aI1
aI0
aI1
aI0
aI2
aI3
aI4
aI7
aI1
aI2
aI1
aI0
aI0
aI0
aI0
aI0
aI0
aI0
aI0
aI0
aI0
aI0
aI0
aI0
aI0
aI0
asS'PursueBehavior'
p17
(lp18
I6
aI29
aI7
aI1
aI1
aI0
aI1
aI1
aI2
aI1
aI10
aI1
aI3
aI4
aI10
aI32
aI12
aI8
aI1
aI4
aI1
aI2
aI6
aI19
aI33
aI14
aI44
aI27
aI38
aI19
aI17
aI7
aI1
aI27
aI34
aI6
aI1
aI2
aI1
aI1
aI31
aI81
aI2
aI2
aI1
aI1
aI0
aI0
aI0
aI2
aI2
aI1
aI0
aI4
aI2
aI3
aI3
aI11
aI2
aI0
aI1
aI0
aI1
aI38
aI3
aI1
aI1
aI1
aI1
aI0
aI4
aI0
aI0
aI2
aI0
aI17
aI3
aI0
aI3
aI0
aI0
aI2
aI1
aI2
aI3
aI2
aI0
aI1
aI1
aI3
aI2
aI2
aI1
aI3
aI2
aI20
aI1
aI0
aI2
aI3
aI0
aI0
aI0
aI0
aI0
aI0
aI0
aI0
aI0
aI0
aI0
aI0
aI0
aI0
aI0
asS'SeekBehavior'
p19
(lp20
I5
aI6
aI87
aI20
aI33
aI47
aI22
aI18
aI27
aI29
aI94
aI24
aI14
aI5
aI41
aI6
aI2
aI28
aI26
aI31
aI18
aI51
aI52
aI22
aI2
aI0
aI1
aI1
aI2
aI1
aI1
aI1
aI4
aI1
aI2
aI1
aI0
aI1
aI2
aI0
aI52
aI24
aI2
aI1
aI1
aI3
aI2
aI1
aI0
aI1
aI2
aI1
aI0
aI16
aI7
aI21
aI13
aI105
aI28
aI21
aI32
aI13
aI15
aI77
aI36
aI46
aI26
aI35
aI32
aI18
aI83
aI27
aI29
aI29
aI26
aI78
aI24
aI14
aI23
aI17
aI43
aI49
aI19
aI53
aI96
aI30
aI30
aI38
aI16
aI36
aI28
aI13
aI19
aI73
aI46
aI85
aI60
aI34
aI64
aI41
aI70
aI16
aI31
aI43
aI26
aI31
aI21
aI37
aI15
aI16
aI32
aI27
aI65
aI24
aI97
assI3
(dp21
S'FleeBehavior'
p22
(lp23
I7
aI0
aI4
aI1
aI4
aI4
aI1
aI0
aI0
aI0
aI7
aI1
aI0
aI0
aI2
aI0
aI0
aI0
aI0
aI2
aI1
aI4
aI1
aI1
aI2
aI0
aI2
aI1
aI1
aI1
aI0
aI2
aI1
aI2
aI4
aI0
aI0
aI0
aI0
aI0
aI48
aI86
aI29
aI33
aI10
aI20
aI21
aI47
aI33
aI20
aI53
aI37
aI10
aI68
aI41
aI24
aI14
aI74
aI38
aI21
aI31
aI12
aI16
aI78
aI37
aI46
aI27
aI35
aI29
aI17
aI84
aI26
aI27
aI31
aI28
aI69
aI28
aI14
aI25
aI16
aI43
aI50
aI21
aI55
aI99
aI30
aI28
aI36
aI17
aI38
aI27
aI15
aI17
aI74
aI47
aI67
aI60
aI34
aI63
aI42
aI69
aI16
aI31
aI43
aI25
aI31
aI20
aI37
aI15
aI16
aI32
aI27
aI65
aI24
aI97
asS'PursueBehavior'
p24
(lp25
I10
aI29
aI63
aI19
aI28
aI0
aI0
aI1
aI0
aI1
aI21
aI21
aI15
aI9
aI54
aI40
aI13
aI36
aI26
aI31
aI19
aI50
aI57
aI39
aI33
aI14
aI45
aI27
aI36
aI20
aI20
aI41
aI3
aI22
aI0
aI1
aI1
aI2
aI1
aI1
aI52
aI49
aI3
aI1
aI0
aI1
aI0
aI2
aI0
aI0
aI3
aI0
aI1
aI1
aI1
aI1
aI2
aI39
aI1
aI0
aI1
aI0
aI0
aI33
aI0
aI1
aI1
aI1
aI3
aI2
aI1
aI1
aI1
aI1
aI1
aI28
aI2
aI0
aI1
aI1
aI0
aI0
aI0
aI1
aI1
aI4
aI2
aI2
aI0
aI2
aI1
aI0
aI1
aI3
aI3
aI37
aI4
aI1
aI2
aI2
aI0
aI0
aI0
aI0
aI0
aI0
aI0
aI0
aI0
aI0
aI0
aI0
aI0
aI0
aI0
asS'SeekBehavior'
p26
(lp27
I6
aI5
aI35
aI0
aI3
aI43
aI23
aI18
aI29
aI29
aI80
aI3
aI2
aI0
aI1
aI0
aI1
aI1
aI1
aI2
aI0
aI2
aI1
aI0
aI1
aI0
aI0
aI0
aI3
aI1
aI1
aI4
aI22
aI83
aI41
aI27
aI19
aI19
aI49
aI24
aI99
aI34
aI1
aI3
aI0
aI1
aI1
aI3
aI0
aI2
aI3
aI1
aI1
aI5
aI1
aI0
aI0
aI5
aI2
aI0
aI1
aI1
aI0
aI7
aI1
aI0
aI0
aI1
aI1
aI0
aI3
aI1
aI2
aI0
aI1
aI1
aI1
aI1
aI0
aI0
aI0
aI2
aI0
aI2
aI3
aI0
aI0
aI0
aI0
aI0
aI2
aI1
aI2
aI1
aI1
aI5
aI4
aI0
aI3
aI1
aI0
aI0
aI0
aI0
aI0
aI0
aI0
aI0
aI0
aI0
aI0
aI0
aI0
aI0
aI0
assI4
(dp28
S'FleeBehavior'
p29
(lp30
I8
aI34
aI60
aI2
aI2
aI3
aI0
aI1
aI0
aI2
aI19
aI17
aI1
aI0
aI2
aI3
aI1
aI0
aI0
aI1
aI0
aI6
aI12
aI5
aI2
aI1
aI2
aI4
aI12
aI1
aI8
aI24
aI24
aI84
aI33
aI28
aI19
aI21
aI42
aI17
aI99
aI50
aI8
aI2
aI0
aI1
aI0
aI2
aI0
aI0
aI3
aI4
aI0
aI18
aI0
aI2
aI2
aI24
aI2
aI1
aI0
aI0
aI0
aI7
aI0
aI0
aI4
aI2
aI3
aI0
aI5
aI3
aI1
aI1
aI1
aI8
aI1
aI1
aI2
aI0
aI5
aI2
aI1
aI2
aI5
aI0
aI3
aI1
aI0
aI0
aI1
aI0
aI3
aI8
aI1
aI2
aI7
aI1
aI4
aI2
aI2
aI1
aI0
aI0
aI0
aI2
aI0
aI1
aI1
aI0
aI0
aI1
aI0
aI2
aI0
asS'PursueBehavior'
p31
(lp32
I9
aI0
aI8
aI0
aI0
aI4
aI0
aI0
aI0
aI0
aI5
aI2
aI0
aI0
aI1
aI1
aI0
aI0
aI1
aI2
aI1
aI3
aI6
aI3
aI3
aI0
aI1
aI1
aI3
aI20
aI13
aI22
aI2
aI22
aI11
aI0
aI1
aI0
aI3
aI3
aI42
aI45
aI0
aI2
aI0
aI0
aI0
aI2
aI1
aI1
aI4
aI1
aI0
aI6
aI2
aI1
aI0
aI27
aI4
aI1
aI2
aI0
aI1
aI37
aI1
aI1
aI0
aI0
aI0
aI0
aI1
aI0
aI2
aI1
aI1
aI38
aI2
aI1
aI0
aI1
aI1
aI2
aI0
aI5
aI22
aI3
aI22
aI30
aI16
aI37
aI26
aI13
aI15
aI41
aI28
aI50
aI3
aI2
aI2
aI2
aI59
aI12
aI29
aI35
aI25
aI24
aI18
aI31
aI13
aI15
aI32
aI22
aI52
aI19
aI80
asS'SeekBehavior'
p33
(lp34
I6
aI0
aI34
aI18
aI33
aI40
aI24
aI18
aI29
aI28
aI84
aI6
aI16
aI9
aI54
aI36
aI13
aI36
aI26
aI32
aI19
aI47
aI41
aI32
aI31
aI13
aI44
aI23
aI25
aI1
aI0
aI1
aI0
aI1
aI1
aI0
aI0
aI0
aI4
aI5
aI58
aI74
aI25
aI33
aI10
aI20
aI22
aI48
aI32
aI21
aI52
aI33
aI12
aI50
aI41
aI22
aI14
aI67
aI35
aI19
aI30
aI13
aI14
aI74
aI37
aI46
aI24
aI35
aI30
aI18
aI82
aI25
aI27
aI30
aI27
aI52
aI27
aI13
aI24
aI16
aI37
aI48
aI20
aI51
aI76
aI31
aI5
aI7
aI1
aI3
aI3
aI3
aI2
aI29
aI22
aI57
aI58
aI32
aI62
aI41
aI8
aI3
aI2
aI7
aI0
aI5
aI2
aI5
aI1
aI1
aI0
aI4
aI13
aI3
aI16
asss.