(dp0
S'learn_scores'
p1
(lp2
F-437.0
aF-382.0
aF-403.0
aF-359.0
aF-451.0
asS'test_scores'
p3
(lp4
F-366.0
asS'behavior_count'
p5
(dp6
I1
(dp7
S'FleeBehavior'
p8
(lp9
I11
aI22
aI45
aI2
aI1
aI0
asS'PursueBehavior'
p10
(lp11
I12
aI30
aI7
aI37
aI30
aI57
asS'SeekBehavior'
p12
(lp13
I5
aI1
aI21
aI1
aI1
aI0
assI2
(dp14
S'FleeBehavior'
p15
(lp16
I11
aI51
aI50
aI8
aI30
aI57
asS'PursueBehavior'
p17
(lp18
I10
aI1
aI1
aI4
aI0
aI0
asS'SeekBehavior'
p19
(lp20
I7
aI0
aI22
aI27
aI2
aI0
assI3
(dp21
S'FleeBehavior'
p22
(lp23
I4
aI0
aI6
aI37
aI31
aI57
asS'PursueBehavior'
p24
(lp25
I16
aI7
aI8
aI0
aI1
aI0
asS'SeekBehavior'
p26
(lp27
I7
aI45
aI59
aI2
aI0
aI0
assI4
(dp28
S'FleeBehavior'
p29
(lp30
I12
aI40
aI45
aI36
aI28
aI57
asS'PursueBehavior'
p31
(lp32
I5
aI6
aI0
aI2
aI3
aI0
asS'SeekBehavior'
p33
(lp34
I10
aI6
aI28
aI1
aI1
aI0
asss.