(dp0
S'learn_scores'
p1
(lp2
F-245.0
aF-335.0
aF-399.0
aF-40.0
aF-423.0
aF-487.0
aF-95.0
aF-437.0
aF-348.0
aF-321.0
aF-443.0
aF-398.0
aF-454.0
aF-448.0
aF-408.0
aF-446.0
aF-377.0
aF-441.0
aF-914.0
aF-410.0
aF-221.0
aF-354.0
aF-202.0
aF-336.0
aF-331.0
aF-400.0
aF-439.0
aF54.0
aF-404.0
aF-457.0
aF-360.0
aF-380.0
aF-449.0
aF-362.0
aF-380.0
aF-367.0
aF-462.0
aF-166.0
aF-353.0
aF-430.0
aF-448.0
aF-30.0
aF-445.0
aF-405.0
aF-450.0
aF-379.0
aF-287.0
aF-68.0
aF-437.0
aF-361.0
aF-468.0
aF-345.0
aF-310.0
aF-361.0
aF-399.0
aF-345.0
aF-423.0
aF-436.0
aF-429.0
aF-412.0
aF-467.0
aF-274.0
aF-433.0
aF-344.0
aF-449.0
aF-107.0
aF-459.0
aF432.0
aF4.0
aF-350.0
aF-372.0
aF-444.0
aF-468.0
aF-409.0
aF-302.0
aF-353.0
aF-351.0
aF-463.0
aF-448.0
aF141.0
aF-421.0
aF-429.0
aF-395.0
aF-401.0
aF-432.0
aF-218.0
aF-314.0
aF-468.0
aF-416.0
aF-298.0
aF-385.0
aF-459.0
aF-426.0
aF-447.0
aF-299.0
aF-440.0
aF-452.0
aF-340.0
aF-77.0
aF-430.0
asS'test_scores'
p3
(lp4
F-167.0
aF-279.0
aF-416.0
aF-371.0
aF-372.0
aF-209.0
aF-462.0
aF-176.0
aF-200.0
aF-16.0
aF-466.0
aF-389.0
aF-339.0
aF329.0
aF-386.0
asS'behavior_count'
p5
(dp6
I1
(dp7
S'FleeBehavior'
p8
(lp9
I21
aI7
aI2
aI47
aI2
aI0
aI26
aI6
aI50
aI3
aI2
aI0
aI0
aI0
aI0
aI1
aI1
aI4
aI2
aI0
aI1
aI0
aI18
aI38
aI0
aI3
aI4
aI50
aI0
aI0
aI0
aI1
aI2
aI1
aI0
aI2
aI0
aI42
aI1
aI2
aI0
aI23
aI0
aI2
aI0
aI1
aI20
aI53
aI22
aI56
aI15
aI35
aI48
aI40
aI36
aI33
aI10
aI15
aI56
aI20
aI23
aI44
aI22
aI34
aI28
aI93
aI26
aI129
aI38
aI3
aI2
aI0
aI2
aI0
aI11
aI15
aI59
aI12
aI19
aI53
aI17
aI38
aI34
aI30
aI38
aI71
aI28
aI17
aI26
aI45
aI51
aI9
aI17
aI24
aI49
aI35
aI10
aI38
aI59
aI28
aI87
aI40
aI36
aI41
aI38
aI78
aI11
aI80
aI141
aI104
aI17
aI18
aI39
aI99
aI30
asS'PursueBehavior'
p10
(lp11
I28
aI1
aI2
aI14
aI28
aI2
aI57
aI5
aI12
aI40
aI30
aI16
aI13
aI19
aI19
aI15
aI52
aI14
aI26
aI21
aI88
aI32
aI75
aI7
aI28
aI38
aI25
aI103
aI23
aI17
aI40
aI28
aI25
aI21
aI28
aI35
aI12
aI46
aI52
aI26
aI18
aI43
aI16
aI52
aI19
aI47
aI65
aI2
aI4
aI0
aI1
aI5
aI2
aI1
aI1
aI1
aI3
aI0
aI2
aI1
aI2
aI1
aI1
aI1
aI0
aI4
aI0
aI60
aI33
aI28
aI39
aI32
aI14
aI29
aI53
aI6
aI6
aI0
aI7
aI7
aI3
aI1
aI0
aI1
aI2
aI1
aI32
aI0
aI0
aI1
aI2
aI0
aI0
aI0
aI1
aI1
aI1
aI2
aI3
aI1
aI0
aI0
aI0
aI0
aI0
aI0
aI0
aI0
aI0
aI0
aI0
aI0
aI0
aI0
aI0
asS'SeekBehavior'
p12
(lp13
I46
aI28
aI95
aI60
aI4
aI15
aI63
aI7
aI7
aI8
aI2
aI2
aI1
aI0
aI0
aI0
aI4
aI3
aI6
aI0
aI3
aI2
aI9
aI2
aI4
aI0
aI0
aI14
aI1
aI1
aI1
aI2
aI2
aI1
aI2
aI0
aI0
aI9
aI1
aI2
aI1
aI5
aI0
aI1
aI1
aI2
aI3
aI4
aI1
aI5
aI2
aI6
aI1
aI1
aI3
aI1
aI1
aI2
aI2
aI1
aI2
aI0
aI0
aI0
aI2
aI10
aI3
aI20
aI5
aI0
aI2
aI3
aI3
aI1
aI8
aI2
aI6
aI2
aI2
aI30
aI2
aI1
aI2
aI1
aI3
aI7
aI4
aI1
aI0
aI3
aI2
aI1
aI0
aI3
aI0
aI5
aI1
aI11
aI25
aI1
aI1
aI0
aI0
aI1
aI5
aI1
aI2
aI6
aI20
aI2
aI0
aI1
aI1
aI12
aI7
assI2
(dp14
S'FleeBehavior'
p15
(lp16
I26
aI0
aI1
aI17
aI1
aI1
aI37
aI0
aI1
aI0
aI5
aI17
aI13
aI13
aI7
aI2
aI2
aI1
aI0
aI2
aI7
aI31
aI30
aI40
aI25
aI38
aI28
aI108
aI1
aI0
aI1
aI2
aI0
aI1
aI0
aI3
aI0
aI2
aI2
aI0
aI0
aI0
aI0
aI1
aI3
aI2
aI1
aI2
aI2
aI49
aI13
aI40
aI47
aI39
aI37
aI33
aI12
aI17
aI53
aI22
aI26
aI43
aI21
aI30
aI29
aI98
aI28
aI103
aI16
aI28
aI41
aI33
aI18
aI30
aI65
aI22
aI68
aI4
aI28
aI55
aI20
aI36
aI33
aI30
aI42
aI60
aI10
aI4
aI2
aI3
aI6
aI0
aI2
aI0
aI1
aI1
aI0
aI0
aI6
aI2
aI0
aI0
aI0
aI0
aI0
aI0
aI0
aI0
aI0
aI10
aI0
aI0
aI0
aI0
aI0
asS'PursueBehavior'
p17
(lp18
I13
aI11
aI39
aI52
aI1
aI0
aI22
aI1
aI5
aI3
aI29
aI1
aI1
aI4
aI12
aI14
aI50
aI19
aI32
aI17
aI84
aI3
aI71
aI3
aI2
aI2
aI1
aI26
aI1
aI0
aI0
aI1
aI1
aI0
aI2
aI0
aI0
aI30
aI1
aI2
aI0
aI11
aI0
aI3
aI0
aI3
aI9
aI3
aI2
aI2
aI2
aI3
aI1
aI1
aI0
aI1
aI1
aI0
aI5
aI0
aI1
aI1
aI1
aI2
aI0
aI4
aI0
aI55
aI40
aI2
aI0
aI2
aI0
aI0
aI2
aI1
aI2
aI8
aI0
aI33
aI1
aI1
aI2
aI2
aI0
aI15
aI45
aI13
aI5
aI4
aI6
aI8
aI4
aI27
aI39
aI39
aI12
aI46
aI76
aI27
aI85
aI40
aI36
aI42
aI42
aI75
aI12
aI86
aI154
aI95
aI17
aI19
aI37
aI95
aI35
asS'SeekBehavior'
p19
(lp20
I56
aI25
aI59
aI52
aI31
aI16
aI87
aI17
aI63
aI48
aI0
aI0
aI0
aI1
aI0
aI0
aI5
aI1
aI2
aI2
aI1
aI0
aI1
aI4
aI5
aI1
aI0
aI33
aI22
aI18
aI40
aI28
aI28
aI22
aI28
aI34
aI12
aI65
aI51
aI28
aI19
aI60
aI16
aI51
aI17
aI45
aI78
aI54
aI23
aI10
aI3
aI3
aI3
aI2
aI2
aI1
aI1
aI0
aI2
aI0
aI0
aI1
aI1
aI3
aI1
aI5
aI1
aI51
aI20
aI1
aI2
aI0
aI1
aI0
aI5
aI0
aI1
aI1
aI0
aI2
aI1
aI2
aI1
aI0
aI1
aI4
aI9
aI1
aI19
aI42
aI43
aI2
aI11
aI0
aI10
aI1
aI0
aI4
aI5
aI1
aI3
aI0
aI0
aI0
aI0
aI4
aI0
aI0
aI7
aI1
aI0
aI0
aI2
aI16
aI1
assI3
(dp21
S'FleeBehavior'
p22
(lp23
I11
aI1
aI29
aI7
aI2
aI0
aI8
aI1
aI4
aI3
aI3
aI2
aI0
aI0
aI0
aI0
aI2
aI1
aI0
aI0
aI3
aI1
aI6
aI2
aI1
aI0
aI1
aI40
aI4
aI1
aI1
aI3
aI1
aI1
aI2
aI0
aI0
aI3
aI0
aI1
aI0
aI4
aI1
aI1
aI0
aI7
aI31
aI30
aI9
aI13
aI16
aI11
aI40
aI34
aI34
aI30
aI10
aI15
aI57
aI20
aI26
aI38
aI19
aI32
aI25
aI97
aI23
aI55
aI4
aI22
aI12
aI24
aI2
aI1
aI11
aI0
aI5
aI0
aI1
aI6
aI2
aI2
aI11
aI0
aI1
aI5
aI57
aI16
aI24
aI39
aI19
aI6
aI15
aI25
aI43
aI38
aI12
aI45
aI36
aI24
aI71
aI39
aI30
aI37
aI41
aI66
aI12
aI40
aI152
aI82
aI16
aI17
aI33
aI68
aI35
asS'PursueBehavior'
p24
(lp25
I64
aI34
aI55
aI73
aI29
aI16
aI94
aI16
aI60
aI46
aI30
aI16
aI13
aI18
aI18
aI15
aI53
aI20
aI31
aI18
aI86
aI31
aI83
aI33
aI25
aI0
aI0
aI21
aI18
aI15
aI39
aI27
aI28
aI21
aI27
aI36
aI12
aI76
aI53
aI29
aI19
aI57
aI13
aI53
aI19
aI41
aI54
aI26
aI17
aI44
aI2
aI34
aI8
aI7
aI3
aI3
aI1
aI0
aI1
aI2
aI0
aI4
aI3
aI3
aI2
aI6
aI5
aI147
aI70
aI8
aI30
aI6
aI2
aI4
aI12
aI7
aI45
aI3
aI2
aI14
aI1
aI2
aI1
aI8
aI2
aI3
aI1
aI2
aI2
aI6
aI22
aI1
aI1
aI2
aI6
aI3
aI0
aI4
aI26
aI6
aI17
aI1
aI6
aI5
aI1
aI13
aI0
aI46
aI9
aI16
aI0
aI2
aI6
aI41
aI1
asS'SeekBehavior'
p26
(lp27
I20
aI1
aI15
aI41
aI2
aI1
aI44
aI1
aI5
aI2
aI1
aI0
aI1
aI0
aI1
aI1
aI2
aI0
aI3
aI3
aI3
aI2
aI13
aI12
aI5
aI41
aI28
aI106
aI2
aI1
aI1
aI1
aI0
aI0
aI1
aI1
aI0
aI18
aI0
aI0
aI0
aI9
aI1
aI1
aI1
aI2
aI2
aI2
aI1
aI4
aI0
aI1
aI3
aI0
aI2
aI2
aI2
aI1
aI2
aI0
aI1
aI3
aI1
aI0
aI3
aI4
aI1
aI7
aI2
aI1
aI1
aI5
aI15
aI25
aI49
aI16
aI21
aI10
aI25
aI70
aI19
aI35
aI24
aI24
aI39
aI70
aI6
aI0
aI0
aI3
aI14
aI2
aI1
aI0
aI1
aI0
aI0
aI1
aI25
aI0
aI0
aI0
aI0
aI0
aI0
aI0
aI0
aI0
aI0
aI8
aI0
aI0
aI0
aI2
aI0
assI4
(dp28
S'FleeBehavior'
p29
(lp30
I21
aI0
aI2
aI18
aI10
aI0
aI7
aI0
aI3
aI1
aI8
aI14
aI11
aI18
aI16
aI13
aI51
aI20
aI31
aI20
aI83
aI32
aI70
aI29
aI1
aI2
aI2
aI64
aI1
aI0
aI3
aI1
aI1
aI1
aI4
aI0
aI0
aI4
aI0
aI2
aI0
aI9
aI0
aI2
aI2
aI3
aI18
aI2
aI1
aI0
aI6
aI1
aI15
aI6
aI0
aI2
aI0
aI0
aI1
aI0
aI1
aI0
aI0
aI1
aI3
aI15
aI7
aI38
aI10
aI16
aI27
aI6
aI0
aI10
aI42
aI10
aI34
aI0
aI1
aI5
aI1
aI1
aI0
aI3
aI3
aI3
aI2
aI0
aI1
aI2
aI0
aI0
aI0
aI1
aI1
aI2
aI0
aI2
aI2
aI0
aI0
aI0
aI0
aI0
aI0
aI0
aI0
aI0
aI0
aI0
aI0
aI0
aI0
aI8
aI0
asS'PursueBehavior'
p31
(lp32
I35
aI35
aI74
aI47
aI23
aI15
aI101
aI3
aI34
aI35
aI4
aI2
aI1
aI0
aI3
aI2
aI3
aI0
aI1
aI1
aI8
aI2
aI19
aI4
aI7
aI5
aI0
aI52
aI2
aI1
aI2
aI5
aI1
aI0
aI0
aI1
aI1
aI4
aI1
aI1
aI2
aI4
aI1
aI7
aI1
aI4
aI17
aI2
aI6
aI15
aI7
aI7
aI16
aI26
aI8
aI14
aI5
aI9
aI17
aI5
aI9
aI14
aI22
aI33
aI25
aI70
aI17
aI74
aI13
aI13
aI15
aI28
aI18
aI19
aI27
aI12
aI33
aI13
aI25
aI51
aI20
aI37
aI33
aI27
aI36
aI73
aI60
aI18
aI24
aI43
aI49
aI8
aI15
aI26
aI45
aI37
aI11
aI48
aI50
aI30
aI88
aI39
aI36
aI42
aI42
aI79
aI12
aI46
aI161
aI84
aI16
aI19
aI39
aI76
aI36
asS'SeekBehavior'
p33
(lp34
I39
aI1
aI23
aI55
aI0
aI2
aI37
aI15
aI31
aI15
aI21
aI2
aI2
aI0
aI0
aI1
aI3
aI1
aI2
aI0
aI1
aI0
aI13
aI13
aI23
aI34
aI27
aI51
aI21
aI16
aI35
aI25
aI27
aI21
aI26
aI36
aI11
aI89
aI52
aI27
aI17
aI57
aI14
aI46
aI17
aI43
aI52
aI54
aI20
aI46
aI5
aI38
aI20
aI9
aI31
aI19
aI8
aI7
aI42
aI17
aI17
aI30
aI1
aI0
aI2
aI22
aI5
aI96
aI53
aI1
aI1
aI1
aI1
aI0
aI3
aI1
aI4
aI0
aI2
aI33
aI1
aI1
aI3
aI2
aI3
aI2
aI2
aI0
aI1
aI3
aI6
aI1
aI1
aI0
aI3
aI1
aI1
aI0
aI35
aI0
aI0
aI0
aI0
aI0
aI0
aI0
aI0
aI40
aI0
aI22
aI0
aI0
aI0
aI27
aI0
asss.