(dp0
S'learn_scores'
p1
(lp2
F-406.0
aF-481.0
aF-364.0
aF-435.0
aF-448.0
aF-344.0
aF-365.0
aF-485.0
aF-200.0
aF-380.0
aF170.0
aF-312.0
aF-229.0
aF-435.0
aF-409.0
aF-392.0
aF-258.0
aF-483.0
aF-400.0
aF-422.0
aF-416.0
aF-240.0
aF-451.0
aF-379.0
aF-482.0
aF-45.0
aF-239.0
aF-371.0
aF-421.0
aF-472.0
aF-380.0
aF-407.0
aF-317.0
aF-387.0
aF-366.0
aF-456.0
aF-417.0
aF-395.0
aF-424.0
aF-348.0
aF-270.0
aF5.0
aF-330.0
aF-63.0
aF-430.0
aF-345.0
aF-275.0
aF-412.0
aF-442.0
aF-441.0
aF-418.0
aF-159.0
aF-353.0
aF-415.0
aF-405.0
aF-60.0
aF-355.0
aF-377.0
aF-373.0
aF87.0
aF-423.0
aF-453.0
aF-401.0
aF-253.0
aF-426.0
aF-380.0
aF-277.0
aF-332.0
aF-329.0
aF-301.0
aF-451.0
aF-439.0
aF-291.0
aF-344.0
aF-424.0
aF-433.0
aF-416.0
aF-412.0
aF-423.0
aF-147.0
aF-124.0
aF-415.0
aF-298.0
aF-434.0
aF-436.0
aF-434.0
aF-156.0
aF-349.0
aF-382.0
aF-369.0
aF-246.0
aF-382.0
aF-355.0
aF-481.0
aF-356.0
aF-387.0
aF-465.0
aF-448.0
aF-452.0
aF118.0
asS'test_scores'
p3
(lp4
F-397.0
aF-431.0
aF-436.0
aF-410.0
aF-362.0
aF-352.0
aF-394.0
aF-373.0
aF-433.0
aF-393.0
aF-332.0
aF-438.0
aF-381.0
aF-358.0
aF-106.0
asS'behavior_count'
p5
(dp6
I1
(dp7
S'FleeBehavior'
p8
(lp9
I27
aI18
aI8
aI0
aI1
aI15
aI2
aI1
aI24
aI27
aI16
aI2
aI20
aI1
aI0
aI2
aI4
aI12
aI39
aI12
aI33
aI65
aI12
aI18
aI13
aI104
aI20
aI3
aI0
aI2
aI1
aI2
aI4
aI1
aI1
aI1
aI1
aI0
aI3
aI2
aI10
aI1
aI10
aI24
aI8
aI0
aI9
aI9
aI16
aI3
aI17
aI76
aI16
aI9
aI5
aI59
aI20
aI8
aI14
aI52
aI6
aI0
aI2
aI3
aI0
aI3
aI29
aI36
aI11
aI43
aI9
aI10
aI14
aI20
aI31
aI12
aI21
aI34
aI10
aI29
aI32
aI21
aI42
aI9
aI9
aI18
aI31
aI20
aI3
aI18
aI24
aI2
aI27
aI0
aI0
aI1
aI1
aI0
aI0
aI4
aI0
aI0
aI0
aI0
aI0
aI0
aI0
aI0
aI0
aI0
aI0
aI0
aI0
aI0
aI24
asS'PursueBehavior'
p10
(lp11
I15
aI1
aI3
aI0
aI0
aI1
aI2
aI1
aI18
aI5
aI10
aI48
aI50
aI1
aI6
aI19
aI68
aI1
aI1
aI0
aI2
aI5
aI0
aI1
aI0
aI51
aI35
aI19
aI40
aI29
aI18
aI24
aI73
aI35
aI33
aI35
aI26
aI53
aI21
aI56
aI41
aI84
aI44
aI24
aI4
aI10
aI35
aI3
aI7
aI8
aI2
aI62
aI41
aI16
aI29
aI2
aI3
aI29
aI19
aI19
aI35
aI33
aI25
aI74
aI27
aI28
aI27
aI24
aI37
aI27
aI3
aI9
aI37
aI5
aI4
aI1
aI6
aI8
aI14
aI66
aI49
aI14
aI3
aI6
aI8
aI4
aI65
aI17
aI37
aI30
aI50
aI21
aI8
aI12
aI46
aI84
aI12
aI16
aI11
aI105
aI18
aI12
aI16
aI31
aI33
aI33
aI35
aI44
aI53
aI33
aI53
aI19
aI21
aI39
aI88
asS'SeekBehavior'
p12
(lp13
I14
aI3
aI23
aI15
aI17
aI48
aI31
aI24
aI49
aI8
aI35
aI3
aI9
aI13
aI24
aI2
aI17
aI1
aI0
aI0
aI2
aI1
aI0
aI0
aI0
aI11
aI24
aI0
aI2
aI2
aI1
aI2
aI1
aI2
aI2
aI0
aI0
aI3
aI1
aI1
aI0
aI10
aI7
aI6
aI8
aI36
aI72
aI11
aI0
aI0
aI0
aI2
aI7
aI1
aI2
aI0
aI2
aI0
aI0
aI3
aI3
aI1
aI4
aI6
aI0
aI0
aI1
aI2
aI2
aI1
aI0
aI1
aI1
aI0
aI0
aI0
aI0
aI1
aI0
aI2
aI4
aI0
aI4
aI0
aI0
aI2
aI1
aI2
aI3
aI2
aI3
aI0
aI1
aI0
aI0
aI2
aI2
aI3
aI1
aI4
aI0
aI0
aI0
aI0
aI0
aI0
aI0
aI0
aI0
aI0
aI0
aI0
aI0
aI0
aI5
assI2
(dp14
S'FleeBehavior'
p15
(lp16
I14
aI0
aI0
aI0
aI1
aI1
aI2
aI0
aI3
aI2
aI4
aI2
aI7
aI0
aI2
aI2
aI1
aI0
aI0
aI0
aI2
aI6
aI0
aI0
aI0
aI4
aI21
aI16
aI33
aI33
aI13
aI20
aI29
aI7
aI5
aI0
aI2
aI1
aI1
aI0
aI0
aI3
aI4
aI10
aI2
aI17
aI34
aI8
aI2
aI1
aI1
aI15
aI27
aI1
aI1
aI14
aI0
aI2
aI0
aI2
aI1
aI2
aI2
aI2
aI3
aI1
aI3
aI1
aI2
aI3
aI0
aI0
aI0
aI2
aI1
aI0
aI1
aI1
aI0
aI3
aI2
aI1
aI4
aI1
aI0
aI2
aI2
aI3
aI18
aI40
aI67
aI16
aI32
aI6
aI36
aI42
aI14
aI17
aI12
aI73
aI17
aI10
aI16
aI31
aI33
aI33
aI31
aI41
aI48
aI33
aI51
aI18
aI19
aI37
aI98
asS'PursueBehavior'
p17
(lp18
I22
aI21
aI31
aI0
aI1
aI9
aI1
aI1
aI17
aI4
aI32
aI45
aI15
aI0
aI2
aI0
aI3
aI0
aI1
aI0
aI2
aI1
aI0
aI0
aI0
aI25
aI3
aI0
aI3
aI0
aI0
aI2
aI26
aI2
aI3
aI1
aI3
aI0
aI0
aI2
aI2
aI41
aI5
aI4
aI0
aI0
aI3
aI1
aI2
aI2
aI4
aI19
aI28
aI20
aI10
aI10
aI1
aI19
aI2
aI41
aI28
aI28
aI27
aI70
aI3
aI4
aI27
aI22
aI23
aI60
aI9
aI18
aI40
aI23
aI34
aI11
aI24
aI38
aI21
aI92
aI75
aI33
aI43
aI13
aI16
aI21
aI87
aI32
aI25
aI5
aI2
aI3
aI2
aI1
aI2
aI19
aI1
aI1
aI0
aI29
aI0
aI0
aI0
aI0
aI0
aI0
aI0
aI0
aI0
aI0
aI0
aI0
aI0
aI0
aI1
asS'SeekBehavior'
p19
(lp20
I20
aI0
aI3
aI15
aI16
aI54
aI32
aI25
aI71
aI34
aI24
aI6
aI57
aI15
aI25
aI21
aI85
aI14
aI39
aI12
aI33
aI64
aI12
aI19
aI13
aI137
aI55
aI5
aI6
aI0
aI7
aI6
aI22
aI29
aI28
aI35
aI22
aI55
aI24
aI56
aI49
aI51
aI52
aI40
aI18
aI29
aI79
aI14
aI19
aI8
aI14
aI106
aI9
aI5
aI24
aI37
aI24
aI16
aI31
aI31
aI15
aI4
aI2
aI11
aI21
aI25
aI27
aI39
aI25
aI8
aI3
aI1
aI12
aI0
aI0
aI2
aI1
aI4
aI2
aI2
aI8
aI1
aI2
aI1
aI0
aI1
aI8
aI4
aI0
aI4
aI7
aI4
aI2
aI5
aI8
aI26
aI0
aI1
aI0
aI11
aI1
aI1
aI0
aI0
aI0
aI0
aI4
aI3
aI5
aI0
aI1
aI0
aI2
aI2
aI18
assI3
(dp21
S'FleeBehavior'
p22
(lp23
I23
aI1
aI2
aI0
aI0
aI9
aI2
aI3
aI53
aI35
aI18
aI3
aI9
aI15
aI27
aI20
aI79
aI2
aI2
aI0
aI0
aI0
aI1
aI1
aI1
aI10
aI15
aI21
aI39
aI31
aI19
aI28
aI75
aI36
aI32
aI33
aI24
aI52
aI23
aI42
aI5
aI30
aI3
aI19
aI0
aI3
aI12
aI0
aI0
aI0
aI0
aI3
aI0
aI6
aI1
aI7
aI0
aI0
aI1
aI2
aI3
aI0
aI2
aI4
aI0
aI0
aI0
aI2
aI8
aI5
aI0
aI0
aI2
aI1
aI1
aI1
aI1
aI3
aI2
aI2
aI3
aI1
aI3
aI0
aI0
aI0
aI3
aI2
aI2
aI1
aI2
aI1
aI0
aI1
aI1
aI2
aI0
aI1
aI0
aI4
aI0
aI0
aI0
aI0
aI0
aI0
aI0
aI0
aI0
aI0
aI0
aI0
aI0
aI0
aI12
asS'PursueBehavior'
p24
(lp25
I9
aI1
aI2
aI1
aI2
aI9
aI1
aI4
aI16
aI2
aI11
aI9
aI54
aI0
aI1
aI1
aI7
aI11
aI33
aI11
aI36
aI60
aI11
aI18
aI12
aI117
aI61
aI0
aI0
aI1
aI0
aI0
aI1
aI0
aI2
aI2
aI2
aI3
aI1
aI13
aI45
aI51
aI55
aI33
aI19
aI42
aI99
aI22
aI22
aI11
aI19
aI119
aI63
aI19
aI34
aI54
aI23
aI35
aI30
aI67
aI40
aI34
aI28
aI74
aI25
aI27
aI55
aI54
aI37
aI63
aI11
aI17
aI48
aI20
aI32
aI12
aI24
aI37
aI21
aI64
aI53
aI30
aI42
aI12
aI16
aI22
aI62
aI36
aI41
aI46
aI69
aI22
aI33
aI10
aI45
aI43
aI14
aI17
aI9
aI72
aI17
aI11
aI16
aI31
aI33
aI33
aI35
aI43
aI53
aI33
aI52
aI18
aI21
aI38
aI89
asS'SeekBehavior'
p26
(lp27
I24
aI19
aI30
aI14
aI16
aI46
aI32
aI19
aI22
aI3
aI31
aI41
aI16
aI0
aI1
aI1
aI3
aI0
aI5
aI1
aI1
aI11
aI0
aI0
aI0
aI38
aI3
aI0
aI2
aI1
aI1
aI0
aI1
aI1
aI2
aI1
aI1
aI1
aI1
aI3
aI1
aI14
aI2
aI2
aI1
aI1
aI5
aI0
aI0
aI0
aI0
aI18
aI1
aI0
aI0
aI0
aI2
aI2
aI2
aI5
aI1
aI0
aI1
aI5
aI1
aI3
aI2
aI6
aI5
aI3
aI1
aI2
aI2
aI4
aI2
aI0
aI1
aI3
aI0
aI31
aI28
aI4
aI4
aI2
aI0
aI2
aI31
aI1
aI0
aI2
aI5
aI0
aI3
aI0
aI0
aI42
aI1
aI0
aI3
aI36
aI0
aI0
aI0
aI0
aI0
aI0
aI0
aI0
aI0
aI0
aI0
aI0
aI0
aI0
aI16
assI4
(dp28
S'FleeBehavior'
p29
(lp30
I5
aI0
aI1
aI0
aI1
aI4
aI1
aI1
aI12
aI0
aI10
aI3
aI18
aI1
aI0
aI1
aI3
aI1
aI6
aI1
aI1
aI5
aI0
aI1
aI0
aI18
aI2
aI1
aI3
aI1
aI3
aI1
aI1
aI2
aI1
aI0
aI1
aI1
aI1
aI1
aI1
aI12
aI2
aI7
aI1
aI1
aI1
aI3
aI1
aI1
aI2
aI5
aI2
aI2
aI1
aI4
aI0
aI2
aI1
aI2
aI4
aI1
aI1
aI3
aI0
aI1
aI3
aI1
aI2
aI2
aI1
aI0
aI3
aI1
aI2
aI5
aI1
aI1
aI1
aI19
aI9
aI2
aI1
aI1
aI2
aI6
aI40
aI28
aI33
aI34
aI63
aI16
aI17
aI1
aI4
aI39
aI11
aI6
aI2
aI28
aI3
aI0
aI0
aI0
aI0
aI0
aI0
aI14
aI0
aI0
aI10
aI0
aI0
aI0
aI41
asS'PursueBehavior'
p31
(lp32
I17
aI18
aI33
aI15
aI16
aI53
aI33
aI25
aI49
aI0
aI13
aI49
aI49
aI14
aI27
aI20
aI81
aI12
aI31
aI10
aI34
aI62
aI11
aI18
aI12
aI137
aI13
aI1
aI2
aI4
aI0
aI1
aI2
aI0
aI3
aI2
aI0
aI3
aI0
aI3
aI3
aI13
aI5
aI2
aI0
aI7
aI30
aI0
aI1
aI0
aI0
aI15
aI2
aI0
aI2
aI3
aI1
aI3
aI2
aI10
aI2
aI0
aI5
aI9
aI0
aI3
aI1
aI0
aI5
aI8
aI0
aI2
aI5
aI1
aI6
aI4
aI5
aI26
aI22
aI54
aI66
aI32
aI46
aI13
aI13
aI18
aI51
aI8
aI6
aI14
aI12
aI4
aI16
aI10
aI40
aI46
aI3
aI12
aI10
aI80
aI14
aI11
aI16
aI31
aI32
aI32
aI35
aI29
aI53
aI33
aI42
aI18
aI21
aI38
aI76
asS'SeekBehavior'
p33
(lp34
I34
aI3
aI0
aI0
aI1
aI7
aI1
aI0
aI30
aI40
aI37
aI1
aI12
aI0
aI2
aI1
aI5
aI0
aI3
aI1
aI2
aI4
aI0
aI0
aI0
aI10
aI64
aI19
aI36
aI28
aI17
aI25
aI74
aI35
aI32
aI34
aI26
aI51
aI24
aI54
aI47
aI70
aI53
aI44
aI19
aI37
aI85
aI19
aI20
aI10
aI16
aI119
aI60
aI23
aI32
aI54
aI24
aI32
aI30
aI61
aI38
aI32
aI25
aI71
aI26
aI26
aI53
aI61
aI43
aI61
aI11
aI17
aI43
aI23
aI27
aI4
aI20
aI15
aI0
aI24
aI9
aI1
aI1
aI0
aI1
aI0
aI5
aI3
aI3
aI1
aI1
aI3
aI3
aI0
aI2
aI2
aI1
aI0
aI0
aI4
aI0
aI0
aI0
aI0
aI0
aI0
aI0
aI0
aI0
aI0
aI0
aI0
aI0
aI0
aI0
asss.