(dp0
S'learn_scores'
p1
(lp2
F-419.0
aF-306.0
aF-201.0
aF-449.0
aF-424.0
aF-399.0
aF-406.0
aF-387.0
aF378.0
aF-461.0
aF-443.0
aF-430.0
aF-388.0
aF-461.0
aF-381.0
aF-312.0
aF-217.0
aF-382.0
aF-151.0
aF-367.0
aF-405.0
aF-150.0
aF-265.0
aF-385.0
aF-388.0
aF-371.0
aF-392.0
aF-425.0
aF-365.0
aF-344.0
aF-197.0
aF247.0
aF-457.0
aF-378.0
aF-429.0
aF-435.0
aF-466.0
aF-339.0
aF-440.0
aF-465.0
aF-87.0
aF-417.0
aF-454.0
aF-439.0
aF-328.0
aF-431.0
aF-457.0
aF-358.0
aF-320.0
aF-454.0
aF-401.0
aF-365.0
aF-446.0
aF-361.0
aF-404.0
aF-378.0
aF-426.0
aF-483.0
aF-390.0
aF-435.0
aF-338.0
aF-406.0
aF-426.0
aF-411.0
aF-427.0
aF-393.0
aF-428.0
aF-375.0
aF-426.0
aF-402.0
aF-381.0
aF-362.0
aF-388.0
aF-419.0
aF-435.0
aF-368.0
aF-406.0
aF-473.0
aF-385.0
aF-484.0
aF-411.0
aF-408.0
aF-407.0
aF-338.0
aF-442.0
aF-426.0
aF-492.0
aF-266.0
aF-478.0
aF-399.0
aF-410.0
aF-440.0
aF-450.0
aF-423.0
aF-281.0
aF170.0
aF-342.0
aF-424.0
aF-464.0
aF-454.0
asS'test_scores'
p3
(lp4
F-196.0
aF-330.0
aF-321.0
aF-243.0
aF-374.0
aF-373.0
aF-391.0
aF-329.0
aF-232.0
aF-364.0
aF-208.0
aF-370.0
aF-377.0
aF-328.0
aF-418.0
asS'behavior_count'
p5
(dp6
I1
(dp7
S'FleeBehavior'
p8
(lp9
I5
aI1
aI0
aI3
aI1
aI0
aI0
aI0
aI14
aI2
aI1
aI1
aI1
aI1
aI12
aI3
aI21
aI40
aI37
aI1
aI0
aI1
aI39
aI15
aI1
aI1
aI2
aI2
aI2
aI4
aI36
aI54
aI13
aI3
aI1
aI1
aI0
aI0
aI0
aI1
aI4
aI1
aI2
aI1
aI4
aI1
aI1
aI1
aI2
aI0
aI0
aI1
aI0
aI4
aI0
aI3
aI0
aI0
aI1
aI0
aI0
aI3
aI1
aI0
aI1
aI1
aI1
aI2
aI0
aI1
aI5
aI2
aI2
aI0
aI1
aI0
aI1
aI1
aI1
aI1
aI2
aI0
aI1
aI1
aI1
aI0
aI1
aI2
aI1
aI0
aI2
aI0
aI1
aI0
aI2
aI4
aI1
aI3
aI0
aI0
aI0
aI0
aI0
aI0
aI0
aI0
aI0
aI0
aI0
aI0
aI0
aI0
aI0
aI0
aI0
asS'PursueBehavior'
p10
(lp11
I11
aI30
aI46
aI25
aI5
aI30
aI40
aI24
aI51
aI18
aI17
aI20
aI36
aI10
aI40
aI47
aI54
aI2
aI5
aI11
aI0
aI4
aI44
aI51
aI3
aI1
aI0
aI2
aI1
aI0
aI13
aI66
aI13
aI25
aI29
aI15
aI26
aI28
aI21
aI14
aI116
aI37
aI41
aI19
aI71
aI9
aI17
aI36
aI37
aI34
aI30
aI34
aI24
aI65
aI25
aI33
aI16
aI13
aI29
aI13
aI38
aI24
aI15
aI21
aI26
aI32
aI17
aI33
aI15
aI42
aI46
aI49
aI27
aI58
aI25
aI26
aI26
aI10
aI23
aI24
aI40
aI19
aI17
aI65
aI20
aI16
aI22
aI72
aI18
aI20
aI17
aI20
aI7
aI24
aI47
aI87
aI51
aI40
aI25
aI24
aI96
aI60
aI71
aI64
aI34
aI34
aI41
aI80
aI112
aI55
aI98
aI41
aI37
aI49
aI39
asS'SeekBehavior'
p12
(lp13
I3
aI16
aI26
aI2
aI19
aI0
aI6
aI4
aI27
aI2
aI16
aI0
aI2
aI1
aI0
aI3
aI13
aI1
aI30
aI25
aI15
aI66
aI43
aI10
aI15
aI29
aI21
aI31
aI53
aI41
aI59
aI53
aI2
aI1
aI0
aI0
aI0
aI2
aI0
aI0
aI8
aI0
aI1
aI0
aI3
aI1
aI0
aI2
aI1
aI0
aI2
aI0
aI2
aI2
aI0
aI2
aI1
aI1
aI0
aI3
aI0
aI0
aI0
aI0
aI0
aI0
aI0
aI0
aI1
aI0
aI1
aI1
aI0
aI1
aI0
aI3
aI0
aI2
aI1
aI0
aI0
aI0
aI0
aI3
aI1
aI0
aI0
aI2
aI0
aI0
aI2
aI0
aI2
aI0
aI2
aI40
aI1
aI1
aI0
aI0
aI0
aI0
aI0
aI0
aI0
aI0
aI0
aI0
aI0
aI0
aI0
aI0
aI0
aI0
aI0
assI2
(dp14
S'FleeBehavior'
p15
(lp16
I10
aI16
aI43
aI1
aI1
aI0
aI1
aI1
aI17
aI0
aI2
aI1
aI0
aI0
aI2
aI0
aI5
aI8
aI30
aI35
aI14
aI64
aI32
aI6
aI0
aI0
aI1
aI3
aI1
aI1
aI9
aI104
aI18
aI1
aI4
aI15
aI24
aI29
aI19
aI11
aI115
aI33
aI30
aI0
aI4
aI0
aI0
aI3
aI1
aI1
aI2
aI1
aI1
aI4
aI4
aI12
aI0
aI0
aI3
aI0
aI0
aI2
aI1
aI0
aI1
aI3
aI2
aI4
aI0
aI3
aI0
aI3
aI2
aI3
aI1
aI0
aI3
aI0
aI0
aI3
aI0
aI2
aI0
aI10
aI4
aI0
aI1
aI7
aI1
aI0
aI0
aI0
aI0
aI0
aI0
aI31
aI2
aI0
aI2
aI0
aI4
aI0
aI0
aI2
aI0
aI0
aI0
aI0
aI1
aI0
aI0
aI0
aI0
aI0
aI1
asS'PursueBehavior'
p17
(lp18
I2
aI0
aI15
aI0
aI2
aI3
aI29
aI21
aI21
aI0
aI1
aI1
aI0
aI1
aI14
aI8
aI14
aI8
aI1
aI1
aI0
aI7
aI77
aI6
aI2
aI1
aI2
aI1
aI1
aI15
aI60
aI47
aI3
aI1
aI2
aI0
aI1
aI0
aI0
aI1
aI8
aI4
aI2
aI2
aI4
aI1
aI0
aI1
aI2
aI0
aI2
aI1
aI0
aI4
aI0
aI2
aI0
aI0
aI1
aI2
aI2
aI2
aI0
aI1
aI2
aI1
aI1
aI0
aI0
aI1
aI2
aI2
aI0
aI3
aI0
aI0
aI3
aI0
aI1
aI3
aI0
aI1
aI1
aI5
aI0
aI0
aI2
aI3
aI0
aI2
aI0
aI0
aI0
aI2
aI1
aI5
aI0
aI3
aI0
aI2
aI12
aI0
aI0
aI0
aI0
aI0
aI0
aI0
aI4
aI0
aI0
aI0
aI0
aI0
aI0
asS'SeekBehavior'
p19
(lp20
I7
aI31
aI13
aI29
aI22
aI27
aI16
aI6
aI54
aI22
aI31
aI19
aI39
aI11
aI36
aI44
aI69
aI27
aI41
aI1
aI1
aI0
aI17
aI64
aI17
aI30
aI20
aI31
aI54
aI28
aI39
aI22
aI7
aI27
aI24
aI1
aI1
aI1
aI1
aI3
aI5
aI1
aI12
aI17
aI70
aI10
aI17
aI35
aI37
aI33
aI28
aI33
aI25
aI63
aI21
aI24
aI17
aI13
aI26
aI14
aI36
aI23
aI15
aI20
aI24
aI29
aI15
aI31
aI16
aI39
aI50
aI47
aI27
aI53
aI25
aI28
aI21
aI13
aI24
aI19
aI41
aI16
aI17
aI54
aI18
aI16
aI19
aI66
aI18
aI18
aI21
aI20
aI10
aI22
aI50
aI95
aI50
aI41
aI23
aI22
aI80
aI60
aI71
aI61
aI34
aI34
aI41
aI79
aI107
aI55
aI98
aI41
aI37
aI49
aI38
assI3
(dp21
S'FleeBehavior'
p22
(lp23
I3
aI0
aI8
aI0
aI0
aI0
aI1
aI0
aI18
aI0
aI0
aI1
aI3
aI0
aI2
aI1
aI3
aI0
aI27
aI4
aI0
aI39
aI3
aI3
aI1
aI1
aI1
aI2
aI1
aI4
aI44
aI39
aI1
aI1
aI0
aI0
aI0
aI2
aI1
aI1
aI29
aI3
aI0
aI1
aI4
aI0
aI3
aI1
aI0
aI0
aI3
aI2
aI1
aI0
aI1
aI1
aI0
aI0
aI2
aI0
aI1
aI1
aI0
aI2
aI1
aI0
aI0
aI0
aI0
aI1
aI2
aI1
aI1
aI1
aI0
aI1
aI0
aI0
aI1
aI0
aI4
aI1
aI0
aI2
aI2
aI1
aI1
aI1
aI0
aI0
aI1
aI0
aI0
aI1
aI3
aI36
aI2
aI2
aI0
aI2
aI0
aI0
aI0
aI0
aI0
aI0
aI0
aI0
aI0
aI0
aI0
aI0
aI0
aI0
aI0
asS'PursueBehavior'
p24
(lp25
I10
aI9
aI42
aI27
aI24
aI28
aI45
aI26
aI52
aI1
aI1
aI1
aI2
aI2
aI0
aI1
aI41
aI37
aI3
aI18
aI15
aI31
aI112
aI49
aI18
aI30
aI20
aI31
aI52
aI38
aI60
aI110
aI27
aI27
aI27
aI14
aI26
aI27
aI17
aI13
aI96
aI30
aI43
aI18
aI69
aI11
aI14
aI35
aI38
aI33
aI27
aI32
aI24
aI68
aI23
aI35
aI16
aI13
aI27
aI15
aI36
aI25
aI16
aI18
aI24
aI33
aI18
aI35
aI16
aI41
aI49
aI50
aI24
aI56
aI25
aI26
aI25
aI12
aI22
aI25
aI37
aI18
aI17
aI65
aI18
aI14
aI20
aI75
aI18
aI18
aI20
aI20
aI10
aI21
aI45
aI94
aI43
aI36
aI7
aI1
aI25
aI2
aI4
aI1
aI0
aI4
aI1
aI10
aI28
aI10
aI4
aI1
aI10
aI0
aI0
asS'SeekBehavior'
p26
(lp27
I6
aI38
aI21
aI2
aI1
aI2
aI0
aI2
aI22
aI21
aI32
aI19
aI34
aI10
aI49
aI50
aI43
aI6
aI42
aI15
aI0
aI1
aI11
aI24
aI0
aI0
aI2
aI2
aI2
aI2
aI3
aI24
aI0
aI1
aI2
aI1
aI0
aI0
aI2
aI1
aI3
aI5
aI1
aI0
aI5
aI0
aI0
aI3
aI2
aI1
aI1
aI1
aI1
aI3
aI0
aI2
aI1
aI0
aI1
aI0
aI1
aI1
aI0
aI1
aI2
aI0
aI0
aI0
aI0
aI1
aI1
aI1
aI3
aI2
aI0
aI1
aI1
aI1
aI2
aI0
aI0
aI0
aI1
aI1
aI2
aI1
aI1
aI0
aI0
aI2
aI0
aI0
aI0
aI1
aI3
aI1
aI7
aI6
aI18
aI21
aI71
aI58
aI67
aI62
aI34
aI30
aI40
aI69
aI84
aI45
aI94
aI40
aI27
aI48
aI38
assI4
(dp28
S'FleeBehavior'
p29
(lp30
I4
aI10
aI41
aI29
aI21
aI8
aI4
aI1
aI27
aI0
aI0
aI0
aI0
aI0
aI5
aI2
aI7
aI36
aI9
aI12
aI0
aI8
aI22
aI17
aI1
aI0
aI1
aI1
aI0
aI4
aI11
aI43
aI1
aI2
aI2
aI0
aI0
aI0
aI1
aI0
aI3
aI2
aI0
aI1
aI3
aI0
aI2
aI1
aI2
aI10
aI1
aI6
aI1
aI10
aI10
aI34
aI12
aI10
aI28
aI12
aI20
aI17
aI12
aI12
aI22
aI7
aI0
aI3
aI1
aI0
aI10
aI13
aI6
aI29
aI1
aI0
aI2
aI0
aI1
aI0
aI1
aI1
aI0
aI1
aI0
aI0
aI1
aI4
aI1
aI0
aI0
aI1
aI1
aI0
aI1
aI8
aI15
aI3
aI0
aI1
aI32
aI0
aI0
aI0
aI0
aI0
aI0
aI0
aI39
aI0
aI0
aI0
aI0
aI0
aI0
asS'PursueBehavior'
p31
(lp32
I7
aI32
aI9
aI0
aI0
aI0
aI3
aI0
aI19
aI0
aI2
aI4
aI2
aI1
aI3
aI7
aI29
aI6
aI45
aI15
aI1
aI26
aI21
aI47
aI18
aI29
aI21
aI34
aI52
aI39
aI69
aI78
aI25
aI25
aI25
aI14
aI26
aI28
aI19
aI15
aI118
aI35
aI41
aI18
aI74
aI11
aI14
aI35
aI37
aI24
aI30
aI27
aI25
aI59
aI13
aI3
aI4
aI3
aI1
aI3
aI16
aI7
aI2
aI8
aI3
aI24
aI18
aI30
aI15
aI41
aI40
aI35
aI21
aI29
aI24
aI26
aI24
aI13
aI24
aI22
aI38
aI15
aI15
aI67
aI21
aI16
aI20
aI68
aI17
aI20
aI21
aI18
aI8
aI23
aI47
aI114
aI35
aI40
aI22
aI22
aI60
aI60
aI71
aI63
aI34
aI33
aI41
aI79
aI72
aI54
aI98
aI41
aI37
aI48
aI38
asS'SeekBehavior'
p33
(lp34
I8
aI5
aI21
aI0
aI3
aI22
aI39
aI26
aI46
aI21
aI31
aI17
aI37
aI11
aI43
aI43
aI51
aI1
aI17
aI10
aI14
aI36
aI82
aI12
aI0
aI2
aI1
aI0
aI3
aI1
aI27
aI52
aI1
aI2
aI2
aI1
aI0
aI1
aI0
aI0
aI6
aI0
aI3
aI0
aI1
aI0
aI1
aI2
aI1
aI0
aI0
aI2
aI0
aI2
aI1
aI1
aI0
aI0
aI1
aI0
aI2
aI2
aI2
aI1
aI2
aI2
aI0
aI2
aI0
aI2
aI1
aI4
aI1
aI1
aI0
aI2
aI0
aI0
aI0
aI3
aI2
aI3
aI2
aI0
aI1
aI0
aI1
aI4
aI0
aI0
aI0
aI1
aI1
aI0
aI3
aI9
aI2
aI1
aI3
aI1
aI4
aI0
aI0
aI0
aI0
aI0
aI0
aI0
aI1
aI0
aI0
aI0
aI0
aI0
aI0
asss.