(dp0
S'learn_scores'
p1
(lp2
F-336.0
aF-479.0
aF-453.0
aF260.0
aF-428.0
aF-412.0
aF-414.0
aF-71.0
aF-413.0
aF-390.0
aF-495.0
aF-420.0
aF-328.0
aF-328.0
aF-423.0
aF-50.0
aF-424.0
aF-341.0
aF-430.0
aF-391.0
aF-479.0
aF-442.0
aF-366.0
aF-425.0
aF-399.0
aF-304.0
aF-154.0
aF-101.0
aF-328.0
aF-422.0
aF-226.0
aF-387.0
aF-400.0
aF-450.0
aF-369.0
aF-465.0
aF-397.0
aF-70.0
aF-349.0
aF-424.0
aF-389.0
aF-96.0
aF-396.0
aF-241.0
aF-448.0
aF-331.0
aF-344.0
aF-428.0
aF-363.0
aF-438.0
aF-445.0
aF-441.0
aF-422.0
aF-376.0
aF-431.0
aF307.0
aF-436.0
aF-374.0
aF-413.0
aF-387.0
aF-377.0
aF-340.0
aF-356.0
aF-426.0
aF-342.0
aF-132.0
aF-289.0
aF-193.0
aF-361.0
aF-374.0
aF-487.0
aF-365.0
aF-441.0
aF-343.0
aF-322.0
aF-407.0
aF-411.0
aF-430.0
aF-392.0
aF2.0
aF-369.0
aF-314.0
aF-347.0
aF-418.0
aF-327.0
aF-450.0
aF-437.0
aF-378.0
aF-94.0
aF-345.0
aF-409.0
aF-414.0
aF-479.0
aF-408.0
aF255.0
aF-371.0
aF-482.0
aF-421.0
aF-327.0
aF-232.0
asS'test_scores'
p3
(lp4
F-367.0
aF-447.0
aF-434.0
aF-438.0
aF-72.0
aF-428.0
aF-416.0
aF-468.0
aF-369.0
aF-393.0
aF-3.0
aF-433.0
aF-290.0
aF-421.0
aF-419.0
asS'behavior_count'
p5
(dp6
I1
(dp7
S'FleeBehavior'
p8
(lp9
I5
aI0
aI0
aI17
aI0
aI1
aI0
aI41
aI0
aI3
aI2
aI0
aI3
aI2
aI0
aI3
aI1
aI1
aI1
aI1
aI2
aI0
aI0
aI0
aI0
aI1
aI47
aI43
aI1
aI0
aI5
aI16
aI14
aI14
aI37
aI13
aI12
aI48
aI28
aI24
aI17
aI116
aI53
aI48
aI17
aI48
aI30
aI13
aI57
aI9
aI15
aI30
aI21
aI24
aI18
aI76
aI2
aI11
aI2
aI1
aI2
aI2
aI0
aI1
aI0
aI4
aI0
aI3
aI0
aI1
aI0
aI0
aI0
aI0
aI0
aI1
aI0
aI0
aI3
aI2
aI0
aI1
aI1
aI1
aI1
aI0
aI2
aI3
aI4
aI1
aI1
aI0
aI0
aI1
aI15
aI2
aI0
aI0
aI4
aI5
aI0
aI0
aI0
aI0
aI0
aI0
aI0
aI0
aI0
aI0
aI0
aI0
aI0
aI0
aI0
asS'PursueBehavior'
p10
(lp11
I15
aI20
aI13
aI108
aI29
aI50
aI14
aI98
aI22
aI47
aI33
aI20
aI45
aI33
aI7
aI68
aI14
aI68
aI4
aI32
aI16
aI12
aI26
aI24
aI19
aI61
aI102
aI60
aI26
aI12
aI78
aI12
aI6
aI4
aI1
aI3
aI5
aI7
aI1
aI0
aI1
aI7
aI3
aI2
aI0
aI2
aI4
aI5
aI13
aI0
aI1
aI0
aI1
aI3
aI3
aI28
aI13
aI30
aI31
aI26
aI16
aI48
aI47
aI25
aI47
aI61
aI49
aI61
aI41
aI52
aI18
aI24
aI20
aI42
aI59
aI16
aI21
aI31
aI38
aI53
aI38
aI43
aI35
aI26
aI45
aI21
aI15
aI33
aI115
aI42
aI39
aI14
aI20
aI37
aI33
aI48
aI22
aI19
aI38
aI64
aI48
aI18
aI25
aI28
aI53
aI28
aI16
aI29
aI39
aI33
aI64
aI14
aI51
aI21
aI30
asS'SeekBehavior'
p12
(lp13
I26
aI0
aI0
aI6
aI0
aI1
aI0
aI3
aI2
aI0
aI1
aI1
aI1
aI4
aI7
aI19
aI0
aI13
aI15
aI9
aI1
aI0
aI0
aI1
aI1
aI3
aI6
aI39
aI12
aI0
aI3
aI0
aI0
aI2
aI2
aI0
aI1
aI6
aI0
aI0
aI2
aI4
aI0
aI2
aI1
aI2
aI1
aI1
aI3
aI0
aI0
aI1
aI1
aI0
aI1
aI39
aI1
aI4
aI1
aI1
aI0
aI1
aI0
aI0
aI5
aI37
aI0
aI0
aI1
aI2
aI0
aI1
aI1
aI2
aI3
aI1
aI1
aI0
aI2
aI33
aI2
aI1
aI2
aI2
aI2
aI0
aI0
aI2
aI6
aI3
aI0
aI1
aI0
aI1
aI8
aI2
aI0
aI2
aI5
aI4
aI0
aI0
aI0
aI0
aI20
aI0
aI0
aI0
aI0
aI0
aI40
aI0
aI0
aI0
aI0
assI2
(dp14
S'FleeBehavior'
p15
(lp16
I15
aI1
aI0
aI30
aI4
aI2
aI0
aI21
aI22
aI48
aI31
aI18
aI46
aI35
aI0
aI16
aI0
aI2
aI1
aI4
aI16
aI12
aI23
aI1
aI2
aI7
aI79
aI10
aI7
aI1
aI2
aI3
aI19
aI18
aI37
aI14
aI17
aI22
aI26
aI21
aI19
aI82
aI53
aI46
aI17
aI51
aI32
aI19
aI65
aI9
aI15
aI28
aI23
aI25
aI20
aI117
aI13
aI29
aI32
aI22
aI8
aI4
aI44
aI25
aI50
aI48
aI12
aI51
aI31
aI7
aI6
aI21
aI19
aI34
aI34
aI17
aI18
aI29
aI41
aI44
aI34
aI44
aI29
aI26
aI37
aI18
aI14
aI32
aI91
aI13
aI5
aI13
aI17
aI38
aI33
aI49
aI20
aI21
aI45
aI64
aI47
aI18
aI25
aI28
aI49
aI28
aI16
aI28
aI39
aI33
aI63
aI13
aI50
aI21
aI27
asS'PursueBehavior'
p17
(lp18
I24
aI17
aI12
aI67
aI3
aI5
aI2
aI96
aI0
aI1
aI1
aI1
aI1
aI4
aI14
aI64
aI14
aI76
aI2
aI4
aI1
aI0
aI0
aI3
aI14
aI43
aI47
aI88
aI17
aI0
aI0
aI1
aI0
aI0
aI3
aI1
aI1
aI33
aI2
aI2
aI1
aI35
aI1
aI6
aI1
aI1
aI2
aI0
aI5
aI0
aI1
aI3
aI0
aI0
aI2
aI11
aI2
aI0
aI0
aI2
aI1
aI1
aI1
aI0
aI2
aI32
aI0
aI1
aI1
aI3
aI1
aI1
aI0
aI3
aI2
aI0
aI0
aI1
aI2
aI5
aI2
aI0
aI4
aI1
aI4
aI1
aI0
aI0
aI7
aI0
aI0
aI1
aI1
aI0
aI10
aI0
aI0
aI0
aI1
aI3
aI0
aI0
aI0
aI0
aI8
aI0
aI0
aI0
aI0
aI0
aI33
aI0
aI0
aI0
aI0
asS'SeekBehavior'
p19
(lp20
I7
aI2
aI1
aI34
aI21
aI45
aI12
aI25
aI1
aI1
aI4
aI1
aI2
aI0
aI0
aI10
aI0
aI4
aI17
aI34
aI2
aI0
aI3
aI21
aI3
aI15
aI29
aI44
aI15
aI11
aI84
aI24
aI1
aI2
aI0
aI1
aI0
aI6
aI1
aI1
aI0
aI10
aI2
aI0
aI0
aI0
aI0
aI0
aI3
aI0
aI0
aI0
aI0
aI1
aI0
aI15
aI1
aI16
aI1
aI4
aI8
aI46
aI1
aI1
aI0
aI22
aI37
aI12
aI10
aI45
aI11
aI3
aI2
aI6
aI26
aI1
aI4
aI0
aI0
aI39
aI3
aI1
aI5
aI1
aI7
aI2
aI3
aI6
aI27
aI32
aI34
aI0
aI2
aI1
aI13
aI3
aI2
aI0
aI1
aI5
aI0
aI0
aI0
aI0
aI15
aI0
aI0
aI1
aI0
aI0
aI8
aI0
aI0
aI0
aI3
assI3
(dp21
S'FleeBehavior'
p22
(lp23
I19
aI0
aI0
aI10
aI1
aI3
aI0
aI35
aI3
aI4
aI1
aI0
aI1
aI1
aI1
aI2
aI0
aI8
aI17
aI11
aI0
aI0
aI0
aI1
aI0
aI3
aI41
aI33
aI3
aI1
aI1
aI1
aI0
aI0
aI2
aI2
aI2
aI35
aI1
aI2
aI0
aI2
aI2
aI5
aI0
aI1
aI6
aI0
aI5
aI0
aI0
aI2
aI1
aI1
aI0
aI31
aI2
aI1
aI0
aI4
aI2
aI1
aI4
aI1
aI3
aI4
aI0
aI1
aI1
aI1
aI0
aI1
aI0
aI2
aI3
aI0
aI1
aI0
aI0
aI2
aI0
aI2
aI0
aI1
aI3
aI1
aI1
aI0
aI5
aI0
aI1
aI0
aI0
aI2
aI0
aI0
aI1
aI1
aI2
aI1
aI0
aI0
aI0
aI0
aI8
aI0
aI0
aI0
aI0
aI0
aI38
aI0
aI0
aI0
aI0
asS'PursueBehavior'
p24
(lp25
I20
aI19
aI13
aI88
aI1
aI9
aI14
aI79
aI16
aI46
aI33
aI20
aI44
aI36
aI13
aI82
aI14
aI73
aI3
aI27
aI11
aI11
aI25
aI24
aI19
aI61
aI85
aI49
aI34
aI10
aI80
aI27
aI20
aI20
aI37
aI13
aI16
aI22
aI27
aI22
aI20
aI92
aI52
aI46
aI18
aI49
aI25
aI19
aI66
aI9
aI14
aI28
aI20
aI24
aI21
aI99
aI14
aI43
aI33
aI23
aI15
aI48
aI42
aI23
aI47
aI60
aI48
aI59
aI40
aI54
aI17
aI24
aI20
aI38
aI31
aI17
aI21
aI30
aI42
aI48
aI39
aI41
aI38
aI27
aI43
aI18
aI15
aI38
aI116
aI15
aI14
aI11
aI18
aI35
aI27
aI36
aI20
aI19
aI41
aI64
aI47
aI18
aI24
aI28
aI56
aI28
aI16
aI28
aI39
aI33
aI66
aI13
aI50
aI21
aI30
asS'SeekBehavior'
p26
(lp27
I7
aI1
aI0
aI32
aI26
aI40
aI0
aI28
aI4
aI0
aI2
aI0
aI3
aI2
aI0
aI6
aI0
aI0
aI0
aI3
aI8
aI1
aI1
aI0
aI0
aI1
aI29
aI59
aI2
aI1
aI5
aI0
aI0
aI0
aI0
aI0
aI0
aI3
aI1
aI0
aI0
aI33
aI2
aI1
aI0
aI2
aI3
aI0
aI2
aI0
aI1
aI1
aI2
aI1
aI0
aI13
aI0
aI1
aI0
aI0
aI0
aI2
aI0
aI2
aI2
aI38
aI1
aI4
aI0
aI0
aI1
aI0
aI1
aI3
aI28
aI1
aI0
aI0
aI1
aI38
aI0
aI1
aI0
aI0
aI2
aI2
aI1
aI0
aI4
aI30
aI24
aI3
aI1
aI1
aI28
aI16
aI1
aI1
aI4
aI7
aI0
aI0
aI0
aI0
aI8
aI0
aI0
aI0
aI0
aI0
aI0
aI0
aI0
aI0
aI0
assI4
(dp28
S'FleeBehavior'
p29
(lp30
I24
aI17
aI13
aI106
aI22
aI2
aI1
aI25
aI3
aI47
aI31
aI20
aI48
aI33
aI6
aI34
aI14
aI61
aI0
aI3
aI0
aI0
aI1
aI1
aI0
aI1
aI6
aI26
aI3
aI1
aI3
aI2
aI0
aI2
aI0
aI0
aI0
aI6
aI0
aI1
aI0
aI41
aI4
aI2
aI0
aI3
aI0
aI3
aI9
aI0
aI0
aI0
aI0
aI0
aI0
aI10
aI1
aI0
aI0
aI0
aI0
aI3
aI1
aI1
aI2
aI39
aI2
aI5
aI3
aI41
aI0
aI0
aI1
aI1
aI1
aI0
aI1
aI1
aI3
aI9
aI0
aI1
aI1
aI0
aI1
aI1
aI0
aI1
aI5
aI1
aI0
aI0
aI1
aI2
aI13
aI3
aI0
aI0
aI6
aI1
aI0
aI0
aI0
aI0
aI23
aI0
aI0
aI0
aI0
aI0
aI39
aI0
aI0
aI0
aI0
asS'PursueBehavior'
p31
(lp32
I11
aI1
aI0
aI7
aI0
aI3
aI0
aI56
aI15
aI1
aI2
aI0
aI0
aI3
aI3
aI2
aI0
aI3
aI3
aI2
aI0
aI3
aI3
aI23
aI17
aI28
aI68
aI63
aI34
aI11
aI79
aI24
aI20
aI18
aI38
aI15
aI17
aI53
aI27
aI23
aI19
aI77
aI50
aI47
aI18
aI47
aI32
aI13
aI36
aI8
aI14
aI30
aI23
aI25
aI20
aI99
aI15
aI40
aI30
aI26
aI16
aI48
aI43
aI24
aI49
aI60
aI45
aI58
aI36
aI11
aI18
aI23
aI20
aI40
aI59
aI15
aI20
aI28
aI36
aI52
aI37
aI42
aI37
aI27
aI44
aI18
aI17
aI36
aI118
aI42
aI39
aI13
aI17
aI33
aI33
aI47
aI22
aI21
aI38
aI68
aI47
aI18
aI24
aI28
aI49
aI28
aI16
aI28
aI39
aI33
aI64
aI13
aI50
aI21
aI30
asS'SeekBehavior'
p33
(lp34
I11
aI1
aI0
aI17
aI6
aI47
aI13
aI61
aI5
aI2
aI2
aI0
aI0
aI3
aI5
aI54
aI0
aI17
aI17
aI36
aI19
aI9
aI22
aI1
aI2
aI36
aI81
aI52
aI1
aI0
aI4
aI1
aI0
aI0
aI1
aI0
aI0
aI1
aI2
aI0
aI1
aI9
aI2
aI2
aI0
aI2
aI2
aI3
aI28
aI0
aI1
aI1
aI0
aI1
aI1
aI34
aI0
aI5
aI3
aI1
aI1
aI0
aI2
aI1
aI1
aI3
aI2
aI1
aI2
aI2
aI0
aI2
aI0
aI2
aI2
aI2
aI1
aI1
aI4
aI27
aI2
aI1
aI0
aI1
aI2
aI1
aI0
aI1
aI1
aI2
aI0
aI1
aI1
aI3
aI9
aI1
aI0
aI0
aI3
aI3
aI0
aI0
aI0
aI0
aI0
aI0
aI0
aI0
aI0
aI0
aI0
aI0
aI0
aI0
aI0
asss.