(dp0
S'learn_scores'
p1
(lp2
F-450.0
aF-347.0
aF-128.0
aF-418.0
aF-300.0
aF108.0
aF-349.0
aF-454.0
aF-449.0
aF-465.0
aF-270.0
aF-410.0
aF-381.0
aF-258.0
aF-338.0
aF-342.0
aF-432.0
aF-464.0
aF-448.0
aF-272.0
aF-329.0
aF-319.0
aF-6.0
aF-63.0
aF-394.0
aF-473.0
aF-361.0
aF-432.0
aF-361.0
aF-362.0
aF-473.0
aF-483.0
aF-395.0
aF-438.0
aF-282.0
aF-384.0
aF-423.0
aF-388.0
aF47.0
aF-396.0
aF-362.0
aF-333.0
aF-328.0
aF-452.0
aF-426.0
aF-386.0
aF-426.0
aF-442.0
aF-451.0
aF-318.0
aF-361.0
aF-234.0
aF-300.0
aF-464.0
aF-451.0
aF-363.0
aF-404.0
aF-307.0
aF-364.0
aF520.0
aF-331.0
aF-360.0
aF-412.0
aF-415.0
aF-457.0
aF-450.0
aF-368.0
aF-401.0
aF-456.0
aF-380.0
aF-217.0
aF-416.0
aF-378.0
aF-423.0
aF-401.0
aF-474.0
aF4.0
aF-469.0
aF-461.0
aF-424.0
aF-391.0
aF-349.0
aF-330.0
aF-310.0
aF-391.0
aF-443.0
aF-391.0
aF-319.0
aF-505.0
aF-451.0
aF-442.0
aF-234.0
aF-400.0
aF-415.0
aF-436.0
aF-445.0
aF-438.0
aF-318.0
aF-390.0
aF-372.0
asS'test_scores'
p3
(lp4
F-467.0
aF-453.0
aF-384.0
aF-438.0
aF-340.0
aF-386.0
aF-374.0
aF-447.0
aF-56.0
aF-393.0
aF-413.0
aF-467.0
aF-467.0
aF-454.0
aF-403.0
asS'behavior_count'
p5
(dp6
I1
(dp7
S'FleeBehavior'
p8
(lp9
I7
aI4
aI22
aI0
aI4
aI68
aI0
aI1
aI0
aI1
aI1
aI2
aI1
aI5
aI2
aI5
aI10
aI0
aI1
aI27
aI1
aI0
aI9
aI25
aI23
aI0
aI3
aI0
aI1
aI1
aI0
aI1
aI1
aI0
aI3
aI6
aI1
aI1
aI11
aI1
aI1
aI1
aI8
aI1
aI1
aI1
aI0
aI1
aI2
aI2
aI3
aI1
aI6
aI1
aI0
aI4
aI2
aI3
aI0
aI47
aI4
aI19
aI36
aI16
aI17
aI39
aI37
aI31
aI29
aI36
aI61
aI33
aI36
aI13
aI29
aI14
aI55
aI34
aI26
aI14
aI20
aI29
aI46
aI28
aI17
aI3
aI2
aI2
aI1
aI0
aI1
aI4
aI1
aI2
aI0
aI1
aI1
aI4
aI1
aI3
aI0
aI0
aI0
aI0
aI0
aI0
aI0
aI0
aI0
aI0
aI0
aI0
aI0
aI0
aI0
asS'PursueBehavior'
p10
(lp11
I3
aI33
aI45
aI0
aI4
aI35
aI0
aI1
aI2
aI0
aI4
aI1
aI2
aI17
aI2
aI0
aI0
aI2
aI5
aI28
aI2
aI2
aI22
aI11
aI8
aI11
aI36
aI13
aI30
aI70
aI13
aI28
aI24
aI17
aI78
aI36
aI32
aI45
aI69
aI10
aI33
aI48
aI20
aI20
aI15
aI24
aI16
aI12
aI17
aI64
aI46
aI67
aI52
aI12
aI11
aI28
aI21
aI43
aI23
aI72
aI32
aI3
aI1
aI0
aI0
aI2
aI1
aI0
aI0
aI0
aI3
aI1
aI2
aI1
aI1
aI0
aI3
aI2
aI2
aI0
aI0
aI1
aI1
aI0
aI0
aI0
aI2
aI1
aI2
aI3
aI0
aI4
aI2
aI3
aI1
aI1
aI0
aI2
aI2
aI0
aI0
aI0
aI0
aI0
aI0
aI0
aI0
aI0
aI0
aI0
aI0
aI0
aI0
aI0
aI0
asS'SeekBehavior'
p12
(lp13
I10
aI1
aI52
aI18
aI63
aI40
aI30
aI33
aI18
aI14
aI65
aI18
aI28
aI87
aI35
aI48
aI3
aI12
aI12
aI98
aI36
aI38
aI66
aI38
aI4
aI2
aI2
aI0
aI1
aI2
aI1
aI5
aI0
aI2
aI2
aI2
aI1
aI3
aI43
aI15
aI8
aI14
aI70
aI2
aI0
aI1
aI1
aI0
aI2
aI2
aI3
aI7
aI43
aI1
aI1
aI2
aI1
aI2
aI2
aI81
aI5
aI9
aI6
aI0
aI0
aI0
aI1
aI1
aI7
aI4
aI4
aI3
aI1
aI0
aI1
aI1
aI39
aI3
aI3
aI0
aI1
aI0
aI4
aI43
aI5
aI10
aI28
aI36
aI43
aI19
aI22
aI87
aI18
aI30
aI16
aI14
aI17
aI62
aI37
aI40
aI18
aI24
aI25
aI29
aI31
aI27
aI74
aI18
aI87
aI24
aI33
aI17
aI18
aI15
aI34
assI2
(dp14
S'FleeBehavior'
p15
(lp16
I2
aI2
aI26
aI18
aI68
aI74
aI18
aI34
aI19
aI15
aI62
aI20
aI30
aI95
aI37
aI51
aI11
aI13
aI18
aI130
aI27
aI36
aI66
aI65
aI34
aI10
aI9
aI12
aI29
aI67
aI13
aI33
aI23
aI18
aI81
aI41
aI34
aI46
aI114
aI9
aI1
aI9
aI43
aI1
aI1
aI1
aI1
aI2
aI1
aI12
aI5
aI8
aI41
aI0
aI0
aI4
aI0
aI6
aI0
aI76
aI4
aI2
aI5
aI5
aI3
aI4
aI2
aI4
aI3
aI3
aI4
aI2
aI1
aI0
aI2
aI0
aI24
aI5
aI1
aI0
aI4
aI4
aI1
aI4
aI5
aI2
aI0
aI2
aI3
aI1
aI1
aI19
aI2
aI3
aI1
aI1
aI3
aI3
aI7
aI4
aI0
aI2
aI0
aI1
aI1
aI1
aI3
aI0
aI43
aI2
aI1
aI3
aI3
aI1
aI0
asS'PursueBehavior'
p17
(lp18
I15
aI9
aI54
aI0
aI2
aI44
aI1
aI1
aI1
aI0
aI5
aI1
aI0
aI11
aI2
aI2
aI0
aI0
aI0
aI3
aI11
aI4
aI2
aI6
aI1
aI3
aI31
aI1
aI2
aI4
aI0
aI0
aI2
aI1
aI1
aI1
aI0
aI0
aI6
aI17
aI40
aI51
aI53
aI21
aI14
aI24
aI16
aI10
aI19
aI53
aI44
aI63
aI55
aI14
aI11
aI29
aI23
aI42
aI24
aI120
aI37
aI26
aI36
aI11
aI14
aI37
aI37
aI25
aI33
aI35
aI62
aI34
aI36
aI13
aI28
aI13
aI53
aI34
aI30
aI13
aI17
aI24
aI49
aI64
aI16
aI11
aI32
aI33
aI41
aI21
aI21
aI49
aI19
aI31
aI16
aI15
aI14
aI64
aI32
aI38
aI18
aI22
aI24
aI28
aI30
aI26
aI71
aI18
aI44
aI22
aI32
aI14
aI15
aI14
aI33
asS'SeekBehavior'
p19
(lp20
I3
aI26
aI38
aI0
aI1
aI25
aI11
aI0
aI0
aI0
aI3
aI0
aI1
aI3
aI0
aI0
aI1
aI1
aI0
aI19
aI1
aI0
aI28
aI3
aI0
aI0
aI1
aI0
aI1
aI2
aI1
aI1
aI0
aI0
aI1
aI2
aI0
aI3
aI3
aI0
aI1
aI3
aI2
aI1
aI1
aI1
aI0
aI1
aI1
aI3
aI3
aI4
aI5
aI0
aI0
aI1
aI1
aI0
aI0
aI4
aI0
aI2
aI2
aI0
aI0
aI0
aI0
aI3
aI0
aI2
aI2
aI1
aI2
aI1
aI1
aI1
aI20
aI0
aI0
aI1
aI0
aI2
aI1
aI2
aI1
aI0
aI0
aI4
aI1
aI0
aI1
aI27
aI0
aI1
aI0
aI0
aI1
aI1
aI1
aI1
aI0
aI0
aI0
aI0
aI0
aI0
aI0
aI0
aI0
aI0
aI0
aI0
aI0
aI0
aI0
assI3
(dp21
S'FleeBehavior'
p22
(lp23
I3
aI33
aI58
aI0
aI5
aI107
aI22
aI33
aI19
aI12
aI65
aI20
aI30
aI64
aI37
aI47
aI12
aI13
aI18
aI119
aI35
aI12
aI16
aI6
aI3
aI0
aI2
aI1
aI1
aI1
aI1
aI0
aI2
aI1
aI2
aI4
aI1
aI1
aI7
aI1
aI8
aI8
aI5
aI2
aI1
aI1
aI2
aI2
aI1
aI9
aI15
aI17
aI13
aI2
aI1
aI0
aI0
aI2
aI0
aI16
aI18
aI0
aI2
aI1
aI0
aI3
aI1
aI2
aI0
aI1
aI5
aI2
aI1
aI0
aI1
aI1
aI1
aI1
aI2
aI0
aI1
aI2
aI0
aI2
aI2
aI0
aI3
aI3
aI4
aI3
aI0
aI9
aI2
aI5
aI16
aI14
aI17
aI66
aI35
aI43
aI18
aI23
aI24
aI28
aI31
aI26
aI74
aI18
aI55
aI23
aI33
aI17
aI17
aI14
aI33
asS'PursueBehavior'
p24
(lp25
I16
aI4
aI35
aI1
aI0
aI10
aI4
aI2
aI0
aI2
aI3
aI0
aI0
aI19
aI1
aI2
aI0
aI0
aI0
aI27
aI3
aI1
aI32
aI23
aI2
aI1
aI2
aI1
aI1
aI6
aI0
aI0
aI0
aI0
aI3
aI1
aI3
aI0
aI4
aI25
aI31
aI36
aI41
aI2
aI0
aI0
aI0
aI1
aI1
aI0
aI1
aI2
aI39
aI1
aI1
aI1
aI3
aI3
aI0
aI22
aI2
aI2
aI1
aI0
aI1
aI1
aI4
aI1
aI1
aI2
aI4
aI3
aI2
aI0
aI1
aI0
aI4
aI0
aI0
aI1
aI0
aI1
aI0
aI1
aI1
aI0
aI1
aI2
aI2
aI2
aI4
aI37
aI2
aI0
aI0
aI1
aI1
aI2
aI2
aI0
aI0
aI0
aI0
aI0
aI0
aI0
aI0
aI0
aI29
aI0
aI0
aI0
aI0
aI0
aI0
asS'SeekBehavior'
p26
(lp27
I1
aI0
aI25
aI17
aI66
aI25
aI3
aI0
aI0
aI1
aI2
aI0
aI1
aI26
aI1
aI4
aI0
aI1
aI0
aI6
aI1
aI26
aI48
aI45
aI30
aI12
aI37
aI11
aI30
aI66
aI12
aI33
aI23
aI17
aI77
aI39
aI30
aI48
aI112
aI0
aI3
aI19
aI52
aI19
aI15
aI25
aI15
aI10
aI19
aI59
aI36
aI56
aI49
aI11
aI9
aI33
aI21
aI43
aI24
aI162
aI21
aI28
aI40
aI15
aI16
aI37
aI34
aI29
aI35
aI37
aI58
aI31
aI35
aI14
aI29
aI13
aI92
aI38
aI29
aI13
aI20
aI26
aI51
aI67
aI19
aI13
aI28
aI34
aI39
aI17
aI19
aI49
aI17
aI30
aI1
aI1
aI0
aI0
aI3
aI0
aI0
aI0
aI0
aI0
aI0
aI0
aI0
aI0
aI3
aI0
aI0
aI0
aI0
aI0
aI0
assI4
(dp28
S'FleeBehavior'
p29
(lp30
I14
aI29
aI42
aI17
aI61
aI34
aI2
aI1
aI2
aI0
aI4
aI0
aI2
aI6
aI10
aI49
aI9
aI2
aI0
aI32
aI38
aI38
aI69
aI61
aI0
aI0
aI0
aI0
aI5
aI50
aI1
aI2
aI1
aI0
aI4
aI1
aI0
aI1
aI4
aI1
aI0
aI4
aI5
aI0
aI1
aI0
aI1
aI0
aI0
aI2
aI2
aI4
aI5
aI0
aI2
aI2
aI0
aI0
aI0
aI7
aI4
aI24
aI38
aI7
aI15
aI13
aI2
aI4
aI0
aI4
aI6
aI25
aI32
aI10
aI22
aI11
aI53
aI13
aI1
aI0
aI0
aI2
aI1
aI2
aI1
aI4
aI0
aI0
aI2
aI0
aI0
aI3
aI1
aI1
aI0
aI0
aI0
aI1
aI2
aI0
aI0
aI0
aI0
aI0
aI0
aI0
aI0
aI0
aI0
aI0
aI0
aI0
aI0
aI0
aI0
asS'PursueBehavior'
p31
(lp32
I3
aI0
aI21
aI0
aI1
aI20
aI2
aI1
aI0
aI0
aI1
aI1
aI0
aI3
aI24
aI1
aI1
aI0
aI0
aI3
aI1
aI0
aI3
aI2
aI2
aI0
aI1
aI1
aI2
aI2
aI1
aI1
aI2
aI0
aI5
aI0
aI2
aI4
aI8
aI2
aI2
aI22
aI5
aI5
aI1
aI1
aI0
aI0
aI1
aI3
aI3
aI5
aI2
aI0
aI0
aI0
aI1
aI0
aI1
aI26
aI0
aI1
aI0
aI2
aI1
aI2
aI4
aI0
aI2
aI1
aI2
aI1
aI2
aI1
aI0
aI1
aI5
aI1
aI0
aI0
aI0
aI1
aI3
aI5
aI0
aI1
aI1
aI0
aI0
aI0
aI0
aI6
aI0
aI0
aI0
aI1
aI0
aI2
aI1
aI3
aI0
aI0
aI0
aI0
aI0
aI0
aI0
aI0
aI0
aI0
aI0
aI0
aI0
aI0
aI0
asS'SeekBehavior'
p33
(lp34
I3
aI8
aI55
aI1
aI9
aI88
aI25
aI33
aI17
aI15
aI65
aI19
aI29
aI99
aI4
aI2
aI2
aI12
aI18
aI117
aI0
aI1
aI24
aI10
aI33
aI13
aI40
aI12
aI24
aI21
aI11
aI30
aI22
aI18
aI73
aI43
aI31
aI44
aI111
aI23
aI40
aI37
aI88
aI18
aI14
aI25
aI16
aI13
aI20
aI63
aI47
aI66
aI94
aI14
aI9
aI32
aI23
aI48
aI23
aI167
aI37
aI5
aI5
aI7
aI1
aI25
aI33
aI27
aI34
aI35
aI59
aI10
aI4
aI3
aI9
aI2
aI38
aI25
aI30
aI14
aI21
aI26
aI46
aI63
aI21
aI8
aI30
aI39
aI43
aI22
aI23
aI86
aI19
aI34
aI17
aI15
aI18
aI65
aI37
aI39
aI17
aI23
aI24
aI28
aI30
aI26
aI74
aI18
aI86
aI23
aI33
aI17
aI17
aI14
aI33
asss.