(dp0
S'learn_scores'
p1
(lp2
F-438.0
aF340.0
aF-82.0
aF-413.0
aF-380.0
aF-446.0
aF-404.0
aF-477.0
aF-447.0
aF-430.0
aF-379.0
aF-450.0
aF-435.0
aF-362.0
aF-425.0
aF245.0
aF-396.0
aF-397.0
aF-332.0
aF-405.0
aF-426.0
aF-396.0
aF-359.0
aF-397.0
aF-402.0
aF-381.0
aF-182.0
aF-411.0
aF-4.0
aF-419.0
aF-334.0
aF-307.0
aF-407.0
aF633.0
aF-384.0
aF-297.0
aF-467.0
aF-267.0
aF-437.0
aF-268.0
aF-409.0
aF-363.0
aF-340.0
aF-322.0
aF-418.0
aF-445.0
aF-418.0
aF-408.0
aF-392.0
aF-458.0
aF-410.0
aF238.0
aF-475.0
aF-361.0
aF-466.0
aF-365.0
aF-322.0
aF-453.0
aF-460.0
aF-453.0
aF-472.0
aF-378.0
aF-316.0
aF-384.0
aF-448.0
aF-330.0
aF-425.0
aF-300.0
aF-16.0
aF-374.0
aF-373.0
aF-432.0
aF-341.0
aF-411.0
aF-361.0
aF-389.0
aF-402.0
aF-425.0
aF-391.0
aF-379.0
aF-408.0
aF-443.0
aF-393.0
aF-422.0
aF-416.0
aF-431.0
aF-291.0
aF-438.0
aF-360.0
aF-442.0
aF-356.0
aF-386.0
aF-126.0
aF-441.0
aF-428.0
aF-426.0
aF-116.0
aF-438.0
aF-394.0
aF-387.0
asS'test_scores'
p3
(lp4
F-417.0
aF-119.0
aF-431.0
aF-367.0
aF-403.0
aF-346.0
aF-436.0
aF22.0
aF-426.0
aF-494.0
aF-421.0
aF-263.0
aF-430.0
aF-262.0
aF-390.0
asS'behavior_count'
p5
(dp6
I1
(dp7
S'FleeBehavior'
p8
(lp9
I2
aI39
aI46
aI1
aI2
aI1
aI1
aI1
aI1
aI1
aI1
aI1
aI0
aI2
aI1
aI12
aI29
aI27
aI23
aI24
aI15
aI25
aI35
aI25
aI30
aI39
aI65
aI2
aI4
aI3
aI18
aI11
aI4
aI50
aI22
aI34
aI15
aI65
aI16
aI42
aI7
aI9
aI19
aI12
aI0
aI0
aI1
aI1
aI0
aI0
aI1
aI30
aI0
aI4
aI1
aI0
aI4
aI0
aI0
aI1
aI0
aI3
aI2
aI4
aI0
aI2
aI0
aI2
aI4
aI3
aI8
aI0
aI1
aI1
aI1
aI1
aI0
aI0
aI1
aI0
aI1
aI1
aI2
aI3
aI0
aI1
aI0
aI1
aI0
aI1
aI1
aI0
aI13
aI3
aI0
aI0
aI89
aI4
aI14
aI18
aI14
aI104
aI12
aI39
aI33
aI44
aI17
aI77
aI17
aI21
aI28
aI46
aI12
aI56
aI10
asS'PursueBehavior'
p10
(lp11
I36
aI49
aI2
aI6
aI0
aI1
aI1
aI0
aI3
aI0
aI2
aI0
aI1
aI4
aI15
aI36
aI5
aI0
aI19
aI1
aI0
aI0
aI2
aI0
aI3
aI1
aI28
aI2
aI50
aI25
aI62
aI44
aI32
aI88
aI1
aI3
aI0
aI1
aI0
aI4
aI16
aI10
aI6
aI12
aI0
aI0
aI2
aI0
aI1
aI1
aI2
aI14
aI1
aI0
aI0
aI1
aI3
aI0
aI2
aI0
aI1
aI3
aI0
aI3
aI1
aI1
aI0
aI1
aI39
aI1
aI2
aI1
aI0
aI0
aI2
aI3
aI1
aI0
aI1
aI2
aI2
aI0
aI0
aI2
aI1
aI0
aI2
aI2
aI1
aI0
aI2
aI1
aI2
aI1
aI1
aI1
aI2
aI0
aI1
aI0
aI0
aI0
aI0
aI0
aI0
aI0
aI0
aI13
aI0
aI0
aI0
aI0
aI0
aI0
aI0
asS'SeekBehavior'
p12
(lp13
I11
aI13
aI64
aI26
aI28
aI34
aI22
aI17
aI23
aI19
aI17
aI10
aI14
aI46
aI9
aI67
aI3
aI1
aI0
aI1
aI2
aI1
aI3
aI2
aI0
aI1
aI50
aI18
aI10
aI2
aI5
aI2
aI1
aI60
aI2
aI1
aI2
aI2
aI1
aI2
aI7
aI15
aI36
aI29
aI18
aI16
aI26
aI28
aI21
aI18
aI17
aI89
aI24
aI48
aI26
aI24
aI56
aI13
aI28
aI23
aI12
aI33
aI35
aI28
aI17
aI47
aI16
aI58
aI73
aI30
aI73
aI22
aI31
aI41
aI39
aI35
aI32
aI16
aI30
aI28
aI36
aI13
aI21
aI28
aI16
aI21
aI50
aI26
aI39
aI21
aI44
aI46
aI71
aI28
aI17
aI16
aI95
aI14
aI10
aI9
aI3
aI6
aI9
aI9
aI11
aI3
aI0
aI8
aI0
aI4
aI4
aI7
aI8
aI7
aI10
assI2
(dp14
S'FleeBehavior'
p15
(lp16
I20
aI47
aI13
aI30
aI28
aI36
aI22
aI16
aI24
aI20
aI20
aI11
aI14
aI46
aI22
aI89
aI32
aI26
aI40
aI24
aI14
aI22
aI3
aI7
aI28
aI4
aI60
aI17
aI28
aI2
aI4
aI2
aI3
aI40
aI2
aI2
aI1
aI3
aI2
aI1
aI1
aI1
aI1
aI1
aI1
aI3
aI2
aI0
aI1
aI0
aI1
aI9
aI0
aI8
aI1
aI1
aI0
aI0
aI1
aI0
aI1
aI1
aI1
aI1
aI1
aI1
aI0
aI2
aI38
aI0
aI4
aI2
aI1
aI1
aI0
aI3
aI1
aI2
aI0
aI1
aI0
aI0
aI1
aI0
aI1
aI1
aI0
aI0
aI2
aI2
aI2
aI3
aI6
aI1
aI0
aI0
aI7
aI0
aI0
aI1
aI0
aI0
aI0
aI0
aI0
aI0
aI0
aI13
aI0
aI0
aI0
aI0
aI0
aI0
aI0
asS'PursueBehavior'
p17
(lp18
I3
aI20
aI11
aI2
aI2
aI0
aI2
aI1
aI1
aI0
aI0
aI0
aI0
aI3
aI0
aI2
aI5
aI1
aI1
aI2
aI1
aI3
aI36
aI2
aI1
aI2
aI36
aI1
aI4
aI0
aI20
aI16
aI33
aI96
aI8
aI35
aI16
aI63
aI14
aI47
aI27
aI29
aI56
aI49
aI16
aI12
aI27
aI29
aI21
aI19
aI18
aI82
aI22
aI42
aI23
aI23
aI62
aI10
aI29
aI24
aI12
aI35
aI36
aI33
aI16
aI46
aI16
aI56
aI74
aI33
aI77
aI21
aI31
aI38
aI40
aI35
aI31
aI12
aI30
aI28
aI39
aI13
aI22
aI33
aI15
aI20
aI49
aI29
aI37
aI20
aI44
aI42
aI53
aI31
aI17
aI17
aI136
aI16
aI24
aI25
aI17
aI70
aI21
aI48
aI44
aI47
aI17
aI76
aI17
aI25
aI32
aI53
aI20
aI63
aI20
asS'SeekBehavior'
p19
(lp20
I26
aI34
aI88
aI1
aI0
aI0
aI0
aI1
aI2
aI0
aI0
aI0
aI1
aI3
aI3
aI24
aI0
aI0
aI1
aI0
aI2
aI1
aI1
aI18
aI3
aI35
aI46
aI3
aI32
aI28
aI60
aI39
aI1
aI62
aI15
aI1
aI0
aI1
aI1
aI0
aI1
aI4
aI3
aI3
aI1
aI0
aI0
aI0
aI0
aI0
aI1
aI41
aI3
aI2
aI2
aI1
aI1
aI3
aI0
aI0
aI0
aI3
aI0
aI0
aI1
aI3
aI0
aI2
aI4
aI1
aI2
aI0
aI0
aI3
aI2
aI1
aI1
aI2
aI2
aI1
aI0
aI1
aI0
aI0
aI1
aI1
aI2
aI0
aI1
aI0
aI1
aI2
aI27
aI0
aI1
aI0
aI43
aI2
aI1
aI1
aI0
aI40
aI0
aI0
aI0
aI0
aI0
aI9
aI0
aI0
aI0
aI0
aI0
aI0
aI0
assI3
(dp21
S'FleeBehavior'
p22
(lp23
I5
aI39
aI75
aI30
aI30
aI34
aI22
aI18
aI24
aI19
aI19
aI11
aI13
aI47
aI24
aI85
aI35
aI25
aI39
aI24
aI15
aI25
aI39
aI24
aI31
aI38
aI90
aI3
aI22
aI29
aI54
aI10
aI26
aI66
aI0
aI0
aI1
aI4
aI1
aI2
aI0
aI1
aI3
aI0
aI1
aI1
aI3
aI0
aI0
aI1
aI2
aI4
aI2
aI2
aI1
aI2
aI1
aI0
aI1
aI0
aI0
aI2
aI0
aI2
aI0
aI2
aI0
aI2
aI3
aI1
aI4
aI0
aI2
aI8
aI11
aI37
aI28
aI14
aI26
aI25
aI35
aI12
aI21
aI32
aI16
aI20
aI50
aI26
aI39
aI22
aI44
aI46
aI69
aI28
aI15
aI14
aI143
aI18
aI25
aI26
aI17
aI70
aI21
aI48
aI44
aI47
aI17
aI76
aI16
aI24
aI32
aI53
aI20
aI62
aI20
asS'PursueBehavior'
p24
(lp25
I18
aI38
aI35
aI1
aI0
aI1
aI0
aI0
aI2
aI0
aI1
aI0
aI0
aI2
aI0
aI24
aI1
aI0
aI1
aI0
aI1
aI0
aI0
aI1
aI0
aI2
aI29
aI16
aI41
aI0
aI17
aI3
aI8
aI59
aI0
aI3
aI0
aI2
aI0
aI1
aI1
aI1
aI1
aI3
aI0
aI0
aI1
aI0
aI1
aI3
aI1
aI8
aI1
aI2
aI1
aI1
aI3
aI1
aI0
aI0
aI0
aI3
aI1
aI4
aI0
aI1
aI0
aI1
aI15
aI29
aI58
aI12
aI19
aI31
aI29
aI1
aI1
aI1
aI4
aI4
aI3
aI0
aI1
aI0
aI1
aI0
aI0
aI2
aI0
aI0
aI2
aI1
aI15
aI2
aI1
aI1
aI39
aI0
aI0
aI0
aI0
aI38
aI0
aI0
aI0
aI0
aI0
aI8
aI0
aI0
aI0
aI0
aI0
aI0
aI0
asS'SeekBehavior'
p26
(lp27
I26
aI24
aI2
aI2
aI0
aI1
aI2
aI0
aI1
aI1
aI0
aI0
aI2
aI3
aI1
aI6
aI1
aI2
aI2
aI1
aI0
aI1
aI0
aI2
aI1
aI1
aI23
aI2
aI1
aI1
aI13
aI44
aI3
aI73
aI25
aI35
aI16
aI61
aI16
aI45
aI28
aI32
aI56
aI50
aI17
aI14
aI25
aI29
aI21
aI15
aI17
aI120
aI22
aI47
aI24
aI22
aI58
aI12
aI29
aI24
aI13
aI34
aI35
aI28
aI18
aI47
aI15
aI57
aI98
aI4
aI21
aI10
aI11
aI3
aI1
aI1
aI3
aI0
aI1
aI0
aI1
aI1
aI1
aI0
aI0
aI1
aI1
aI1
aI1
aI0
aI0
aI0
aI2
aI2
aI2
aI1
aI4
aI0
aI0
aI1
aI0
aI1
aI0
aI0
aI0
aI0
aI0
aI14
aI0
aI0
aI0
aI0
aI0
aI0
aI0
assI4
(dp28
S'FleeBehavior'
p29
(lp30
I27
aI32
aI44
aI5
aI28
aI33
aI24
aI16
aI27
aI20
aI18
aI9
aI15
aI46
aI24
aI85
aI4
aI0
aI5
aI0
aI0
aI0
aI1
aI0
aI0
aI2
aI8
aI0
aI5
aI3
aI28
aI45
aI12
aI45
aI7
aI3
aI0
aI0
aI0
aI1
aI0
aI0
aI0
aI0
aI0
aI0
aI0
aI1
aI0
aI1
aI1
aI35
aI0
aI1
aI1
aI0
aI3
aI0
aI2
aI0
aI0
aI0
aI0
aI0
aI0
aI0
aI2
aI2
aI3
aI0
aI2
aI0
aI2
aI1
aI1
aI1
aI1
aI1
aI1
aI1
aI1
aI1
aI1
aI1
aI0
aI0
aI4
aI0
aI0
aI1
aI0
aI0
aI38
aI1
aI0
aI1
aI37
aI1
aI1
aI1
aI0
aI39
aI0
aI0
aI0
aI0
aI0
aI8
aI0
aI0
aI0
aI0
aI0
aI0
aI0
asS'PursueBehavior'
p31
(lp32
I15
aI10
aI27
aI27
aI0
aI2
aI0
aI0
aI0
aI0
aI1
aI0
aI0
aI0
aI0
aI9
aI13
aI1
aI2
aI23
aI14
aI12
aI37
aI25
aI32
aI32
aI114
aI19
aI56
aI19
aI9
aI1
aI6
aI45
aI3
aI0
aI1
aI3
aI0
aI1
aI1
aI1
aI3
aI0
aI0
aI1
aI0
aI1
aI0
aI0
aI0
aI10
aI0
aI3
aI0
aI1
aI5
aI0
aI1
aI0
aI2
aI0
aI1
aI1
aI1
aI2
aI0
aI1
aI43
aI1
aI1
aI2
aI2
aI1
aI2
aI1
aI0
aI0
aI1
aI1
aI1
aI0
aI2
aI0
aI0
aI2
aI2
aI0
aI1
aI0
aI1
aI1
aI5
aI2
aI0
aI1
aI3
aI0
aI0
aI1
aI0
aI0
aI0
aI0
aI0
aI0
aI0
aI14
aI0
aI0
aI0
aI0
aI0
aI0
aI0
asS'SeekBehavior'
p33
(lp34
I7
aI59
aI41
aI1
aI2
aI1
aI0
aI1
aI0
aI0
aI0
aI1
aI0
aI6
aI1
aI21
aI20
aI26
aI35
aI2
aI2
aI14
aI1
aI2
aI0
aI7
aI20
aI2
aI3
aI7
aI47
aI11
aI19
aI107
aI15
aI34
aI16
aI64
aI17
aI46
aI28
aI32
aI57
aI52
aI18
aI14
aI28
aI27
aI22
aI17
aI19
aI87
aI25
aI47
aI25
aI24
aI54
aI13
aI27
aI24
aI10
aI38
aI35
aI33
aI17
aI48
aI13
aI57
aI70
aI33
aI80
aI20
aI28
aI39
aI38
aI37
aI31
aI14
aI29
aI27
aI37
aI12
aI20
aI31
aI16
aI19
aI45
aI28
aI39
aI21
aI45
aI46
aI43
aI29
aI18
aI14
aI146
aI17
aI24
aI25
aI17
aI70
aI21
aI47
aI44
aI47
aI16
aI76
aI16
aI24
aI32
aI53
aI20
aI62
aI20
asss.