(dp0
S'learn_scores'
p1
(lp2
F-407.0
aF-434.0
aF-428.0
aF-408.0
aF-424.0
aF-423.0
aF-415.0
aF-456.0
aF-371.0
aF-408.0
aF-27.0
aF-388.0
aF-374.0
aF-296.0
aF-338.0
aF-393.0
aF-397.0
aF-416.0
aF-282.0
aF-435.0
aF-302.0
aF-120.0
aF-481.0
aF-362.0
aF-435.0
aF-41.0
aF-398.0
aF-416.0
aF-419.0
aF-407.0
aF-198.0
aF-369.0
aF-475.0
aF-368.0
aF-392.0
aF-390.0
aF-427.0
aF-401.0
aF-248.0
aF-210.0
aF-388.0
aF-391.0
aF-421.0
aF-397.0
aF-405.0
aF-369.0
aF-363.0
aF-424.0
aF-427.0
aF-442.0
aF-384.0
aF-321.0
aF-392.0
aF-445.0
aF-391.0
aF-354.0
aF-258.0
aF-442.0
aF-480.0
aF-363.0
aF-449.0
aF-425.0
aF-436.0
aF-415.0
aF-36.0
aF-411.0
aF-397.0
aF-471.0
aF-195.0
aF-445.0
aF-275.0
aF-391.0
aF-325.0
aF239.0
aF-359.0
aF-277.0
aF-402.0
aF-400.0
aF-268.0
aF-407.0
aF-300.0
aF-377.0
aF-438.0
aF-417.0
aF-457.0
aF-424.0
aF-334.0
aF-446.0
aF-300.0
aF-416.0
aF-340.0
aF-340.0
aF-448.0
aF-464.0
aF-350.0
aF-419.0
aF-429.0
aF-414.0
aF-473.0
aF-418.0
asS'test_scores'
p3
(lp4
F-414.0
aF-450.0
aF-447.0
aF-355.0
aF-389.0
aF-430.0
aF-370.0
aF-420.0
aF-326.0
aF-433.0
aF-317.0
aF-416.0
aF-393.0
aF-396.0
aF-389.0
asS'behavior_count'
p5
(dp6
I1
(dp7
S'FleeBehavior'
p8
(lp9
I6
aI6
aI10
aI5
aI22
aI1
aI1
aI0
aI5
aI18
aI25
aI7
aI9
aI9
aI8
aI7
aI1
aI0
aI2
aI1
aI9
aI22
aI6
aI2
aI0
aI16
aI4
aI0
aI0
aI1
aI2
aI1
aI1
aI0
aI0
aI2
aI1
aI3
aI10
aI45
aI6
aI22
aI20
aI17
aI37
aI32
aI29
aI24
aI16
aI11
aI22
aI72
aI20
aI25
aI18
aI48
aI76
aI11
aI19
aI44
aI18
aI14
aI24
aI24
aI61
aI30
aI16
aI30
aI80
aI15
aI47
aI24
aI41
aI116
aI22
aI11
aI0
aI2
aI22
aI0
aI16
aI21
aI6
aI4
aI1
aI0
aI14
aI0
aI9
aI0
aI17
aI1
aI0
aI0
aI0
aI3
aI1
aI0
aI0
aI2
aI0
aI0
aI0
aI0
aI0
aI0
aI0
aI0
aI0
aI0
aI0
aI0
aI0
aI0
aI0
asS'PursueBehavior'
p10
(lp11
I19
aI28
aI8
aI6
aI0
aI1
aI2
aI0
aI0
aI3
aI40
aI9
aI4
aI18
aI7
aI6
aI2
aI1
aI1
aI0
aI1
aI11
aI3
aI20
aI16
aI42
aI11
aI15
aI18
aI16
aI66
aI48
aI13
aI45
aI32
aI35
aI25
aI53
aI9
aI12
aI7
aI0
aI1
aI1
aI1
aI1
aI1
aI0
aI1
aI1
aI0
aI3
aI1
aI0
aI0
aI2
aI3
aI1
aI1
aI1
aI0
aI0
aI0
aI0
aI2
aI1
aI0
aI0
aI3
aI0
aI3
aI1
aI1
aI7
aI0
aI3
aI0
aI2
aI19
aI31
aI28
aI1
aI2
aI0
aI0
aI0
aI3
aI1
aI2
aI3
aI2
aI3
aI1
aI2
aI0
aI2
aI0
aI0
aI0
aI4
aI0
aI0
aI0
aI0
aI0
aI0
aI0
aI0
aI0
aI0
aI0
aI0
aI0
aI0
aI0
asS'SeekBehavior'
p12
(lp13
I13
aI1
aI11
aI8
aI2
aI22
aI12
aI37
aI37
aI8
aI23
aI52
aI32
aI49
aI23
aI21
aI44
aI26
aI59
aI34
aI43
aI87
aI13
aI0
aI0
aI14
aI3
aI2
aI1
aI1
aI1
aI0
aI2
aI4
aI1
aI3
aI2
aI5
aI39
aI24
aI26
aI10
aI1
aI0
aI8
aI17
aI4
aI0
aI0
aI1
aI2
aI6
aI2
aI1
aI4
aI4
aI9
aI0
aI1
aI9
aI2
aI1
aI2
aI2
aI3
aI1
aI1
aI2
aI3
aI0
aI6
aI6
aI3
aI38
aI7
aI74
aI32
aI26
aI77
aI7
aI37
aI15
aI11
aI13
aI16
aI15
aI48
aI16
aI70
aI34
aI42
aI47
aI17
aI12
aI31
aI25
aI28
aI25
aI14
aI13
aI24
aI31
aI27
aI25
aI40
aI21
aI50
aI41
aI56
aI24
aI77
aI27
aI34
aI27
aI30
assI2
(dp14
S'FleeBehavior'
p15
(lp16
I20
aI30
aI0
aI0
aI0
aI0
aI0
aI1
aI0
aI3
aI46
aI37
aI39
aI19
aI38
aI33
aI41
aI23
aI55
aI31
aI42
aI42
aI4
aI0
aI0
aI10
aI9
aI0
aI0
aI0
aI2
aI1
aI0
aI1
aI0
aI2
aI4
aI2
aI2
aI7
aI1
aI1
aI1
aI1
aI1
aI1
aI0
aI0
aI0
aI0
aI0
aI5
aI1
aI1
aI1
aI1
aI38
aI0
aI0
aI1
aI0
aI0
aI0
aI0
aI17
aI0
aI0
aI1
aI2
aI0
aI4
aI2
aI1
aI36
aI0
aI8
aI21
aI7
aI59
aI3
aI12
aI2
aI1
aI0
aI0
aI2
aI2
aI0
aI36
aI1
aI4
aI2
aI1
aI0
aI0
aI1
aI0
aI1
aI0
aI1
aI0
aI0
aI0
aI0
aI0
aI0
aI0
aI0
aI0
aI0
aI0
aI0
aI0
aI0
aI0
asS'PursueBehavior'
p17
(lp18
I4
aI4
aI29
aI19
aI24
aI24
aI15
aI36
aI41
aI24
aI28
aI23
aI4
aI44
aI0
aI0
aI6
aI3
aI3
aI1
aI8
aI44
aI16
aI22
aI15
aI53
aI9
aI16
aI18
aI18
aI66
aI48
aI15
aI45
aI31
aI36
aI23
aI56
aI53
aI71
aI34
aI29
aI21
aI16
aI42
aI46
aI32
aI24
aI17
aI13
aI23
aI75
aI22
aI25
aI18
aI50
aI46
aI12
aI20
aI51
aI18
aI15
aI26
aI26
aI47
aI31
aI15
aI27
aI83
aI14
aI50
aI29
aI43
aI116
aI26
aI67
aI9
aI21
aI49
aI25
aI58
aI26
aI14
aI17
aI17
aI12
aI62
aI16
aI41
aI33
aI56
aI48
aI15
aI14
aI30
aI27
aI28
aI24
aI14
aI18
aI24
aI31
aI27
aI25
aI40
aI21
aI50
aI41
aI56
aI24
aI77
aI27
aI33
aI27
aI30
asS'SeekBehavior'
p19
(lp20
I13
aI1
aI0
aI0
aI0
aI0
aI0
aI0
aI1
aI2
aI14
aI8
aI1
aI13
aI0
aI1
aI0
aI0
aI4
aI3
aI3
aI34
aI2
aI0
aI1
aI9
aI0
aI1
aI1
aI0
aI1
aI0
aI1
aI2
aI2
aI2
aI0
aI3
aI3
aI3
aI4
aI2
aI0
aI0
aI2
aI3
aI2
aI0
aI0
aI0
aI1
aI1
aI0
aI0
aI3
aI3
aI4
aI0
aI1
aI2
aI2
aI0
aI0
aI0
aI2
aI1
aI2
aI4
aI1
aI1
aI2
aI0
aI1
aI9
aI3
aI12
aI2
aI2
aI10
aI10
aI11
aI9
aI3
aI0
aI0
aI1
aI1
aI0
aI4
aI2
aI0
aI0
aI2
aI0
aI0
aI2
aI1
aI0
aI0
aI0
aI0
aI0
aI0
aI0
aI0
aI0
aI0
aI0
aI0
aI0
aI0
aI0
aI0
aI0
aI0
assI3
(dp21
S'FleeBehavior'
p22
(lp23
I11
aI1
aI0
aI1
aI1
aI0
aI1
aI0
aI2
aI1
aI24
aI19
aI1
aI7
aI19
aI2
aI2
aI0
aI1
aI2
aI3
aI18
aI3
aI0
aI0
aI1
aI0
aI0
aI1
aI0
aI1
aI2
aI1
aI13
aI32
aI31
aI15
aI54
aI38
aI31
aI6
aI2
aI1
aI2
aI2
aI3
aI1
aI0
aI0
aI0
aI2
aI5
aI1
aI1
aI0
aI3
aI2
aI0
aI1
aI0
aI3
aI1
aI1
aI1
aI1
aI1
aI1
aI0
aI5
aI0
aI3
aI2
aI2
aI7
aI0
aI4
aI1
aI2
aI65
aI5
aI12
aI1
aI1
aI1
aI2
aI3
aI2
aI0
aI6
aI2
aI1
aI1
aI1
aI1
aI1
aI1
aI1
aI1
aI0
aI0
aI0
aI0
aI0
aI0
aI0
aI0
aI0
aI0
aI0
aI0
aI0
aI0
aI0
aI0
aI0
asS'PursueBehavior'
p24
(lp25
I22
aI32
aI28
aI18
aI21
aI4
aI0
aI1
aI19
aI23
aI31
aI21
aI2
aI15
aI16
aI28
aI14
aI24
aI59
aI30
aI48
aI69
aI3
aI2
aI1
aI25
aI6
aI14
aI14
aI14
aI23
aI0
aI0
aI11
aI0
aI2
aI2
aI0
aI2
aI5
aI3
aI13
aI1
aI0
aI0
aI0
aI0
aI0
aI1
aI0
aI0
aI1
aI0
aI1
aI0
aI4
aI40
aI2
aI0
aI1
aI2
aI2
aI0
aI1
aI20
aI2
aI0
aI2
aI1
aI0
aI3
aI2
aI3
aI45
aI3
aI4
aI1
aI1
aI4
aI0
aI7
aI2
aI2
aI0
aI2
aI0
aI0
aI0
aI34
aI5
aI2
aI2
aI1
aI0
aI1
aI2
aI0
aI0
aI0
aI0
aI0
aI0
aI0
aI0
aI0
aI0
aI0
aI0
aI0
aI0
aI0
aI0
aI0
aI0
aI0
asS'SeekBehavior'
p26
(lp27
I4
aI1
aI0
aI0
aI2
aI20
aI14
aI36
aI20
aI5
aI33
aI28
aI41
aI54
aI3
aI4
aI31
aI2
aI2
aI3
aI1
aI33
aI16
aI20
aI14
aI46
aI12
aI2
aI4
aI4
aI45
aI47
aI15
aI24
aI1
aI7
aI10
aI7
aI18
aI45
aI30
aI17
aI20
aI15
aI43
aI46
aI33
aI24
aI16
aI13
aI22
aI75
aI21
aI24
aI21
aI47
aI46
aI10
aI20
aI53
aI15
aI12
aI25
aI23
aI45
aI29
aI16
aI29
aI80
aI15
aI50
aI27
aI40
aI109
aI26
aI79
aI30
aI27
aI49
aI33
aI61
aI34
aI15
aI16
aI13
aI11
aI62
aI16
aI40
aI29
aI57
aI47
aI16
aI13
aI28
aI27
aI28
aI23
aI14
aI19
aI24
aI31
aI27
aI25
aI40
aI21
aI50
aI41
aI56
aI24
aI77
aI27
aI33
aI26
aI30
assI4
(dp28
S'FleeBehavior'
p29
(lp30
I17
aI32
aI27
aI18
aI21
aI19
aI12
aI32
aI40
aI27
aI57
aI53
aI36
aI45
aI7
aI29
aI45
aI23
aI57
aI34
aI47
aI46
aI14
aI19
aI14
aI47
aI16
aI16
aI17
aI17
aI67
aI46
aI13
aI42
aI33
aI35
aI23
aI58
aI54
aI72
aI23
aI4
aI20
aI15
aI42
aI47
aI22
aI22
aI17
aI11
aI22
aI78
aI21
aI26
aI20
aI49
aI84
aI12
aI20
aI52
aI16
aI14
aI23
aI23
aI52
aI27
aI17
aI30
aI67
aI15
aI52
aI25
aI32
aI59
aI13
aI20
aI10
aI11
aI54
aI2
aI10
aI2
aI3
aI1
aI2
aI0
aI4
aI0
aI1
aI3
aI7
aI3
aI0
aI0
aI1
aI0
aI0
aI1
aI3
aI0
aI0
aI0
aI0
aI0
aI0
aI0
aI1
aI0
aI5
aI0
aI0
aI0
aI0
aI0
aI0
asS'PursueBehavior'
p31
(lp32
I10
aI0
aI1
aI0
aI2
aI2
aI1
aI3
aI1
aI1
aI13
aI11
aI4
aI17
aI23
aI3
aI1
aI3
aI1
aI1
aI2
aI24
aI3
aI3
aI1
aI4
aI1
aI0
aI2
aI0
aI0
aI1
aI2
aI3
aI0
aI3
aI4
aI2
aI3
aI5
aI14
aI1
aI2
aI1
aI2
aI1
aI0
aI0
aI0
aI1
aI1
aI0
aI0
aI0
aI1
aI2
aI1
aI0
aI1
aI0
aI2
aI0
aI0
aI2
aI8
aI0
aI0
aI1
aI0
aI0
aI1
aI2
aI3
aI29
aI5
aI56
aI22
aI18
aI50
aI0
aI3
aI3
aI1
aI0
aI0
aI1
aI1
aI0
aI4
aI0
aI2
aI3
aI3
aI0
aI1
aI1
aI0
aI1
aI0
aI2
aI0
aI0
aI0
aI0
aI0
aI0
aI0
aI0
aI0
aI0
aI0
aI0
aI0
aI0
aI0
asS'SeekBehavior'
p33
(lp34
I10
aI2
aI0
aI0
aI1
aI2
aI2
aI1
aI0
aI0
aI18
aI4
aI4
aI14
aI8
aI2
aI1
aI0
aI4
aI0
aI3
aI50
aI4
aI0
aI0
aI20
aI1
aI0
aI0
aI0
aI1
aI2
aI0
aI3
aI0
aI2
aI0
aI1
aI1
aI3
aI2
aI26
aI0
aI1
aI1
aI1
aI12
aI2
aI0
aI0
aI1
aI3
aI1
aI0
aI0
aI3
aI3
aI0
aI0
aI2
aI1
aI1
aI3
aI0
aI6
aI4
aI0
aI0
aI19
aI0
aI3
aI4
aI10
aI73
aI11
aI11
aI0
aI1
aI14
aI35
aI67
aI32
aI14
aI16
aI15
aI13
aI59
aI16
aI75
aI33
aI51
aI44
aI15
aI14
aI28
aI28
aI29
aI22
aI11
aI16
aI24
aI30
aI27
aI25
aI40
aI20
aI49
aI41
aI51
aI23
aI77
aI27
aI33
aI26
aI29
asss.