(dp0
S'learn_scores'
p1
(lp2
F-236.0
aF-346.0
aF-396.0
aF-374.0
aF169.0
aF-283.0
aF-392.0
aF-376.0
aF-394.0
aF-406.0
aF33.0
aF-399.0
aF-446.0
aF-354.0
aF-442.0
aF-376.0
aF-433.0
aF-393.0
aF-294.0
aF-394.0
aF-422.0
aF-324.0
aF-171.0
aF-405.0
aF-397.0
aF-414.0
aF-441.0
aF-471.0
aF112.0
aF-485.0
aF-391.0
aF-314.0
aF-419.0
aF-230.0
aF-417.0
aF-364.0
aF-413.0
aF-348.0
aF-323.0
aF-406.0
aF-398.0
aF-426.0
aF-420.0
aF-421.0
aF-464.0
aF-421.0
aF-432.0
aF-183.0
aF143.0
aF-474.0
aF-442.0
aF-364.0
aF-295.0
aF-384.0
aF-402.0
aF-304.0
aF-373.0
aF-344.0
aF-436.0
aF-355.0
aF-445.0
aF-374.0
aF-281.0
aF-433.0
aF14.0
aF-424.0
aF235.0
aF-407.0
aF-89.0
aF-478.0
aF-26.0
aF-423.0
aF-463.0
aF-233.0
aF-464.0
aF-414.0
aF-156.0
aF337.0
aF78.0
aF-262.0
aF-422.0
aF-402.0
aF-367.0
aF-427.0
aF-262.0
aF-434.0
aF-462.0
aF-224.0
aF-415.0
aF-400.0
aF292.0
aF-396.0
aF-403.0
aF-388.0
aF-427.0
aF-424.0
aF-371.0
aF-427.0
aF-301.0
aF-409.0
asS'test_scores'
p3
(lp4
F-334.0
aF-363.0
aF-282.0
aF-453.0
aF-426.0
aF-420.0
aF-255.0
aF-380.0
aF-410.0
aF-438.0
aF-373.0
aF-386.0
aF-382.0
aF-368.0
aF6.0
asS'behavior_count'
p5
(dp6
I1
(dp7
S'FleeBehavior'
p8
(lp9
I18
aI23
aI3
aI6
aI51
aI2
aI1
aI1
aI1
aI2
aI30
aI1
aI0
aI2
aI1
aI1
aI1
aI1
aI4
aI0
aI0
aI1
aI2
aI1
aI11
aI13
aI12
aI20
aI117
aI13
aI7
aI16
aI11
aI8
aI0
aI0
aI1
aI30
aI44
aI34
aI14
aI16
aI18
aI21
aI21
aI38
aI21
aI103
aI32
aI1
aI1
aI2
aI2
aI2
aI3
aI2
aI0
aI0
aI1
aI1
aI0
aI3
aI3
aI1
aI20
aI21
aI57
aI18
aI45
aI18
aI97
aI14
aI13
aI54
aI18
aI10
aI75
aI13
aI21
aI9
aI31
aI21
aI26
aI26
aI40
aI14
aI13
aI86
aI24
aI27
aI77
aI33
aI41
aI27
aI15
aI32
aI29
aI36
aI36
aI25
aI54
aI34
aI53
aI14
aI17
aI21
aI35
aI20
aI41
aI28
aI24
aI26
aI33
aI28
aI49
asS'PursueBehavior'
p10
(lp11
I15
aI0
aI1
aI2
aI19
aI4
aI2
aI1
aI0
aI0
aI4
aI2
aI15
aI50
aI22
aI35
aI30
aI23
aI49
aI43
aI12
aI42
aI56
aI13
aI26
aI1
aI0
aI0
aI12
aI2
aI15
aI58
aI27
aI49
aI36
aI42
aI30
aI18
aI5
aI3
aI2
aI0
aI0
aI0
aI2
aI2
aI1
aI8
aI82
aI0
aI0
aI2
aI2
aI1
aI0
aI0
aI4
aI2
aI1
aI1
aI0
aI1
aI1
aI4
aI33
aI3
aI8
aI0
aI12
aI1
aI15
aI0
aI0
aI7
aI2
aI0
aI7
aI55
aI47
aI72
aI0
aI1
aI0
aI0
aI2
aI1
aI0
aI4
aI0
aI2
aI5
aI1
aI1
aI1
aI2
aI2
aI0
aI0
aI2
aI2
aI0
aI0
aI0
aI0
aI0
aI0
aI40
aI0
aI0
aI0
aI0
aI0
aI0
aI0
aI25
asS'SeekBehavior'
p12
(lp13
I24
aI4
aI32
aI37
aI32
aI67
aI30
aI35
aI33
aI34
aI73
aI27
aI1
aI2
aI0
aI0
aI3
aI0
aI1
aI1
aI0
aI2
aI43
aI1
aI1
aI0
aI0
aI1
aI19
aI1
aI0
aI0
aI2
aI4
aI1
aI2
aI2
aI0
aI4
aI0
aI3
aI0
aI3
aI1
aI2
aI1
aI0
aI3
aI53
aI13
aI21
aI41
aI52
aI31
aI49
aI63
aI40
aI43
aI14
aI33
aI16
aI21
aI58
aI29
aI33
aI1
aI40
aI0
aI13
aI0
aI24
aI0
aI0
aI3
aI4
aI14
aI34
aI15
aI14
aI2
aI2
aI0
aI1
aI1
aI1
aI0
aI0
aI5
aI2
aI2
aI27
aI2
aI1
aI1
aI1
aI0
aI2
aI2
aI3
aI2
aI0
aI0
aI0
aI0
aI0
aI0
aI0
aI0
aI0
aI0
aI0
aI0
aI0
aI0
aI0
assI2
(dp14
S'FleeBehavior'
p15
(lp16
I25
aI2
aI10
aI33
aI58
aI14
aI31
aI33
aI32
aI33
aI53
aI0
aI0
aI4
aI0
aI1
aI1
aI0
aI3
aI1
aI0
aI4
aI2
aI0
aI1
aI1
aI0
aI0
aI5
aI3
aI21
aI70
aI35
aI52
aI2
aI3
aI3
aI2
aI4
aI5
aI18
aI15
aI21
aI19
aI25
aI38
aI18
aI100
aI102
aI13
aI22
aI38
aI52
aI33
aI47
aI61
aI43
aI40
aI14
aI34
aI16
aI22
aI55
aI12
aI13
aI4
aI19
aI2
aI3
aI16
aI113
aI13
aI11
aI60
aI22
aI24
aI106
aI40
aI26
aI49
aI30
aI1
aI1
aI1
aI4
aI7
aI13
aI88
aI22
aI28
aI74
aI28
aI38
aI25
aI3
aI2
aI4
aI1
aI4
aI4
aI4
aI0
aI7
aI1
aI0
aI0
aI8
aI4
aI4
aI0
aI3
aI0
aI12
aI1
aI30
asS'PursueBehavior'
p17
(lp18
I18
aI0
aI1
aI1
aI17
aI3
aI1
aI2
aI1
aI1
aI18
aI27
aI16
aI50
aI22
aI35
aI30
aI22
aI49
aI43
aI12
aI40
aI60
aI14
aI30
aI13
aI11
aI20
aI110
aI13
aI0
aI2
aI3
aI8
aI33
aI41
aI29
aI43
aI43
aI32
aI0
aI0
aI0
aI0
aI0
aI2
aI3
aI9
aI57
aI1
aI0
aI3
aI1
aI1
aI2
aI1
aI0
aI1
aI0
aI0
aI0
aI0
aI4
aI6
aI32
aI0
aI22
aI15
aI50
aI0
aI13
aI1
aI1
aI0
aI0
aI0
aI3
aI30
aI38
aI29
aI0
aI0
aI0
aI0
aI5
aI0
aI0
aI1
aI4
aI0
aI3
aI0
aI2
aI3
aI0
aI2
aI5
aI0
aI2
aI1
aI0
aI0
aI0
aI0
aI0
aI0
aI35
aI0
aI0
aI0
aI0
aI0
aI0
aI0
aI5
asS'SeekBehavior'
p19
(lp20
I14
aI25
aI25
aI11
aI27
aI56
aI1
aI2
aI1
aI2
aI36
aI2
aI0
aI0
aI1
aI0
aI2
aI2
aI2
aI0
aI0
aI1
aI39
aI1
aI7
aI0
aI0
aI1
aI33
aI0
aI0
aI2
aI2
aI1
aI2
aI0
aI1
aI3
aI6
aI0
aI1
aI1
aI0
aI2
aI0
aI1
aI1
aI5
aI8
aI0
aI0
aI4
aI2
aI0
aI3
aI3
aI1
aI4
aI2
aI1
aI0
aI2
aI3
aI16
aI41
aI21
aI64
aI1
aI16
aI2
aI10
aI0
aI1
aI3
aI2
aI0
aI7
aI13
aI18
aI4
aI3
aI21
aI26
aI26
aI34
aI8
aI0
aI6
aI0
aI3
aI32
aI8
aI3
aI1
aI14
aI30
aI22
aI36
aI35
aI24
aI50
aI33
aI46
aI13
aI16
aI20
aI32
aI16
aI37
aI28
aI21
aI26
aI20
aI27
aI39
assI3
(dp21
S'FleeBehavior'
p22
(lp23
I9
aI1
aI0
aI1
aI13
aI2
aI0
aI4
aI0
aI1
aI2
aI1
aI0
aI2
aI2
aI1
aI0
aI1
aI1
aI0
aI1
aI2
aI2
aI2
aI0
aI0
aI1
aI0
aI13
aI14
aI21
aI67
aI37
aI25
aI0
aI0
aI1
aI2
aI1
aI0
aI0
aI0
aI1
aI2
aI1
aI1
aI1
aI4
aI31
aI2
aI19
aI20
aI50
aI31
aI48
aI58
aI42
aI42
aI7
aI2
aI15
aI23
aI52
aI32
aI73
aI24
aI62
aI16
aI63
aI16
aI123
aI11
aI13
aI55
aI24
aI22
aI78
aI57
aI33
aI9
aI29
aI18
aI25
aI18
aI16
aI14
aI11
aI67
aI5
aI9
aI45
aI35
aI40
aI27
aI17
aI32
aI29
aI33
aI37
aI28
aI50
aI33
aI46
aI12
aI16
aI20
aI68
aI20
aI39
aI28
aI24
aI25
aI32
aI28
aI56
asS'PursueBehavior'
p24
(lp25
I29
aI23
aI23
aI25
aI41
aI54
aI30
aI31
aI33
aI34
aI91
aI25
aI16
aI51
aI21
aI33
aI33
aI21
aI51
aI43
aI11
aI42
aI57
aI12
aI38
aI14
aI10
aI20
aI101
aI0
aI0
aI7
aI3
aI32
aI36
aI41
aI32
aI46
aI48
aI35
aI19
aI13
aI19
aI19
aI23
aI40
aI21
aI109
aI94
aI11
aI2
aI22
aI3
aI3
aI1
aI3
aI0
aI2
aI8
aI33
aI1
aI1
aI8
aI1
aI3
aI1
aI39
aI1
aI0
aI1
aI6
aI1
aI0
aI5
aI0
aI0
aI21
aI8
aI13
aI10
aI4
aI2
aI0
aI0
aI3
aI0
aI1
aI3
aI3
aI2
aI29
aI0
aI1
aI0
aI0
aI0
aI2
aI2
aI2
aI1
aI4
aI0
aI7
aI2
aI0
aI0
aI7
aI0
aI1
aI0
aI0
aI1
aI0
aI0
aI18
asS'SeekBehavior'
p26
(lp27
I19
aI3
aI13
aI19
aI47
aI17
aI2
aI2
aI1
aI1
aI14
aI3
aI0
aI1
aI0
aI2
aI0
aI1
aI2
aI1
aI0
aI1
aI42
aI1
aI0
aI0
aI0
aI1
aI34
aI2
aI0
aI0
aI0
aI4
aI1
aI3
aI0
aI0
aI4
aI1
aI0
aI3
aI1
aI0
aI1
aI0
aI0
aI1
aI42
aI1
aI1
aI2
aI2
aI0
aI3
aI3
aI1
aI1
aI1
aI0
aI0
aI0
aI1
aI1
aI10
aI0
aI4
aI1
aI6
aI1
aI7
aI1
aI0
aI3
aI0
aI2
aI17
aI18
aI36
aI63
aI0
aI2
aI2
aI9
aI24
aI0
aI0
aI24
aI18
aI20
aI35
aI1
aI2
aI1
aI0
aI2
aI0
aI2
aI2
aI0
aI0
aI0
aI0
aI0
aI0
aI0
aI0
aI0
aI0
aI0
aI0
aI0
aI0
aI0
aI0
assI4
(dp28
S'FleeBehavior'
p29
(lp30
I19
aI4
aI4
aI8
aI56
aI30
aI4
aI1
aI0
aI3
aI43
aI23
aI14
aI48
aI0
aI2
aI2
aI1
aI5
aI1
aI0
aI3
aI32
aI2
aI2
aI2
aI1
aI1
aI36
aI0
aI0
aI7
aI2
aI1
aI6
aI0
aI3
aI1
aI1
aI0
aI1
aI1
aI2
aI1
aI6
aI1
aI4
aI22
aI98
aI5
aI7
aI21
aI3
aI4
aI16
aI19
aI26
aI6
aI7
aI11
aI7
aI12
aI11
aI4
aI46
aI2
aI27
aI17
aI50
aI1
aI18
aI2
aI0
aI7
aI3
aI1
aI14
aI11
aI3
aI12
aI9
aI1
aI0
aI1
aI0
aI0
aI1
aI2
aI2
aI0
aI6
aI0
aI1
aI1
aI1
aI3
aI0
aI1
aI0
aI1
aI0
aI0
aI0
aI0
aI0
aI0
aI1
aI0
aI1
aI0
aI1
aI0
aI0
aI1
aI0
asS'PursueBehavior'
p31
(lp32
I28
aI5
aI30
aI29
aI21
aI18
aI28
aI35
aI32
aI31
aI47
aI5
aI0
aI4
aI22
aI34
aI30
aI22
aI48
aI39
aI12
aI37
aI64
aI11
aI34
aI12
aI10
aI20
aI100
aI16
aI19
aI62
aI36
aI56
aI30
aI42
aI29
aI45
aI47
aI13
aI16
aI15
aI18
aI20
aI18
aI38
aI18
aI76
aI34
aI1
aI0
aI1
aI5
aI2
aI2
aI4
aI0
aI2
aI0
aI2
aI0
aI0
aI5
aI2
aI4
aI2
aI8
aI0
aI4
aI2
aI60
aI11
aI13
aI53
aI20
aI23
aI98
aI41
aI59
aI54
aI22
aI20
aI26
aI25
aI38
aI14
aI11
aI92
aI23
aI28
aI92
aI34
aI41
aI26
aI15
aI28
aI31
aI36
aI38
aI28
aI54
aI33
aI53
aI13
aI16
aI20
aI73
aI20
aI39
aI28
aI23
aI26
aI32
aI27
aI73
asS'SeekBehavior'
p33
(lp34
I9
aI17
aI2
aI8
aI24
aI25
aI0
aI1
aI2
aI2
aI17
aI1
aI2
aI2
aI0
aI0
aI1
aI0
aI1
aI4
aI0
aI5
aI5
aI2
aI1
aI0
aI0
aI0
aI12
aI0
aI2
aI5
aI1
aI3
aI1
aI2
aI1
aI2
aI5
aI23
aI2
aI0
aI1
aI0
aI1
aI2
aI0
aI15
aI35
aI8
aI15
aI22
aI47
aI28
aI34
aI41
aI17
aI36
aI9
aI22
aI9
aI12
aI45
aI28
aI36
aI20
aI70
aI0
aI15
aI15
aI58
aI0
aI0
aI3
aI1
aI0
aI4
aI31
aI20
aI16
aI1
aI1
aI1
aI1
aI4
aI0
aI0
aI0
aI0
aI2
aI11
aI2
aI1
aI1
aI1
aI3
aI0
aI0
aI3
aI0
aI0
aI0
aI0
aI0
aI0
aI0
aI1
aI0
aI0
aI0
aI0
aI0
aI0
aI0
aI1
asss.