(dp0
S'learn_scores'
p1
(lp2
F-393.0
aF-365.0
aF-424.0
aF-390.0
aF-408.0
aF-176.0
aF-349.0
aF-401.0
aF-346.0
aF-397.0
aF-429.0
aF-391.0
aF-409.0
aF-378.0
aF-427.0
aF-295.0
aF-164.0
aF-400.0
aF-435.0
aF-427.0
aF-385.0
aF-466.0
aF-439.0
aF-262.0
aF-396.0
aF-389.0
aF-342.0
aF-370.0
aF-408.0
aF-281.0
aF-235.0
aF-478.0
aF-393.0
aF-63.0
aF-322.0
aF108.0
aF-435.0
aF-347.0
aF143.0
aF-433.0
aF-261.0
aF70.0
aF-248.0
aF-418.0
aF-359.0
aF-464.0
aF-407.0
aF-408.0
aF-388.0
aF-376.0
aF-83.0
aF-293.0
aF-340.0
aF-402.0
aF-409.0
aF-75.0
aF-430.0
aF-450.0
aF-462.0
aF-398.0
aF-343.0
aF-319.0
aF-424.0
aF-414.0
aF-442.0
aF-474.0
aF-408.0
aF-417.0
aF-449.0
aF-428.0
aF-416.0
aF-298.0
aF-460.0
aF-402.0
aF-432.0
aF388.0
aF-375.0
aF-316.0
aF-268.0
aF-371.0
aF-411.0
aF-413.0
aF6.0
aF-427.0
aF-442.0
aF-395.0
aF-475.0
aF-391.0
aF-77.0
aF-184.0
aF-443.0
aF-114.0
aF-439.0
aF-261.0
aF-407.0
aF-449.0
aF-411.0
aF-434.0
aF-374.0
aF-388.0
asS'test_scores'
p3
(lp4
F-376.0
aF-224.0
aF-400.0
aF-399.0
aF-360.0
aF-426.0
aF-400.0
aF-384.0
aF-334.0
aF-435.0
aF-390.0
aF-389.0
aF-424.0
aF-421.0
aF-470.0
asS'behavior_count'
p5
(dp6
I1
(dp7
S'FleeBehavior'
p8
(lp9
I7
aI11
aI2
aI1
aI0
aI2
aI1
aI1
aI4
aI3
aI9
aI32
aI1
aI0
aI2
aI0
aI29
aI34
aI5
aI0
aI0
aI1
aI2
aI16
aI0
aI0
aI0
aI2
aI3
aI1
aI4
aI1
aI1
aI11
aI0
aI2
aI1
aI1
aI4
aI6
aI52
aI37
aI2
aI2
aI0
aI1
aI1
aI2
aI2
aI0
aI12
aI0
aI4
aI1
aI2
aI1
aI0
aI0
aI1
aI3
aI0
aI1
aI1
aI2
aI1
aI0
aI1
aI0
aI0
aI1
aI1
aI5
aI1
aI2
aI1
aI3
aI3
aI1
aI1
aI1
aI0
aI0
aI1
aI1
aI0
aI0
aI1
aI0
aI4
aI1
aI1
aI5
aI1
aI2
aI1
aI2
aI0
aI0
aI1
aI1
aI0
aI0
aI0
aI0
aI0
aI0
aI0
aI0
aI0
aI0
aI0
aI0
aI0
aI0
aI0
asS'PursueBehavior'
p10
(lp11
I5
aI6
aI1
aI9
aI20
aI37
aI4
aI18
aI74
aI34
aI0
aI4
aI27
aI27
aI35
aI45
aI58
aI4
aI6
aI0
aI1
aI1
aI3
aI3
aI2
aI1
aI1
aI0
aI1
aI1
aI1
aI0
aI1
aI24
aI37
aI15
aI13
aI38
aI53
aI6
aI3
aI46
aI20
aI44
aI24
aI1
aI0
aI0
aI2
aI0
aI12
aI35
aI11
aI1
aI0
aI37
aI0
aI1
aI0
aI1
aI2
aI4
aI0
aI0
aI2
aI1
aI1
aI2
aI0
aI2
aI0
aI2
aI0
aI0
aI1
aI8
aI0
aI2
aI1
aI1
aI1
aI1
aI28
aI0
aI1
aI1
aI0
aI2
aI41
aI3
aI0
aI30
aI2
aI0
aI2
aI1
aI3
aI2
aI0
aI0
aI0
aI40
aI0
aI0
aI0
aI0
aI0
aI0
aI0
aI0
aI0
aI0
aI0
aI0
aI0
asS'SeekBehavior'
p12
(lp13
I12
aI29
aI11
aI41
aI8
aI48
aI25
aI2
aI9
aI0
aI1
aI6
aI1
aI1
aI1
aI1
aI27
aI12
aI4
aI18
aI35
aI14
aI35
aI73
aI35
aI28
aI31
aI28
aI25
aI49
aI71
aI18
aI42
aI78
aI16
aI36
aI11
aI19
aI61
aI12
aI26
aI27
aI47
aI3
aI15
aI12
aI26
aI36
aI24
aI27
aI40
aI28
aI36
aI20
aI47
aI47
aI20
aI9
aI11
aI44
aI62
aI35
aI24
aI23
aI29
aI23
aI36
aI26
aI20
aI16
aI16
aI51
aI19
aI31
aI20
aI72
aI22
aI54
aI67
aI20
aI21
aI23
aI56
aI27
aI12
aI25
aI14
aI30
aI52
aI81
aI13
aI60
aI27
aI59
aI24
aI17
aI28
aI33
aI24
aI27
aI27
aI44
aI31
aI49
aI51
aI26
aI20
aI34
aI45
aI15
aI21
aI59
aI34
aI11
aI20
assI2
(dp14
S'FleeBehavior'
p15
(lp16
I8
aI0
aI1
aI2
aI0
aI22
aI0
aI0
aI1
aI2
aI0
aI2
aI0
aI0
aI2
aI1
aI20
aI2
aI4
aI15
aI34
aI15
aI38
aI67
aI13
aI0
aI1
aI2
aI2
aI0
aI5
aI1
aI2
aI12
aI43
aI12
aI0
aI1
aI23
aI17
aI52
aI16
aI40
aI15
aI0
aI0
aI0
aI2
aI1
aI1
aI14
aI2
aI1
aI0
aI3
aI2
aI1
aI0
aI0
aI2
aI3
aI0
aI1
aI2
aI1
aI1
aI0
aI0
aI0
aI0
aI0
aI1
aI2
aI1
aI0
aI1
aI2
aI4
aI3
aI0
aI0
aI2
aI10
aI0
aI0
aI0
aI0
aI0
aI37
aI6
aI0
aI37
aI1
aI3
aI1
aI0
aI1
aI0
aI0
aI1
aI0
aI37
aI0
aI0
aI0
aI0
aI0
aI0
aI0
aI0
aI0
aI0
aI0
aI0
aI0
asS'PursueBehavior'
p17
(lp18
I10
aI33
aI12
aI41
aI5
aI39
aI29
aI21
aI79
aI29
aI10
aI38
aI29
aI26
aI35
aI42
aI75
aI42
aI10
aI2
aI1
aI0
aI1
aI4
aI21
aI27
aI31
aI28
aI27
aI49
aI70
aI16
aI41
aI78
aI8
aI30
aI6
aI6
aI20
aI7
aI25
aI16
aI26
aI32
aI9
aI14
aI26
aI34
aI27
aI24
aI37
aI59
aI47
aI22
aI46
aI47
aI18
aI9
aI12
aI46
aI60
aI39
aI22
aI22
aI31
aI21
aI37
aI27
aI19
aI19
aI17
aI56
aI17
aI32
aI21
aI61
aI21
aI50
aI62
aI21
aI21
aI19
aI58
aI27
aI12
aI26
aI15
aI31
aI59
aI74
aI13
aI55
aI29
aI58
aI26
aI20
aI27
aI34
aI24
aI27
aI27
aI47
aI30
aI49
aI51
aI26
aI20
aI34
aI45
aI15
aI21
aI59
aI34
aI11
aI20
asS'SeekBehavior'
p19
(lp20
I6
aI12
aI1
aI8
aI23
aI26
aI1
aI0
aI7
aI6
aI0
aI2
aI0
aI2
aI1
aI3
aI19
aI6
aI1
aI0
aI1
aI1
aI0
aI21
aI3
aI2
aI0
aI0
aI0
aI2
aI1
aI2
aI0
aI23
aI1
aI11
aI19
aI51
aI74
aI0
aI4
aI78
aI3
aI2
aI30
aI0
aI1
aI2
aI0
aI2
aI13
aI2
aI2
aI0
aI0
aI36
aI1
aI1
aI0
aI0
aI1
aI1
aI2
aI0
aI0
aI2
aI1
aI1
aI0
aI0
aI0
aI1
aI1
aI0
aI1
aI20
aI2
aI3
aI4
aI1
aI1
aI2
aI16
aI1
aI0
aI0
aI0
aI1
aI1
aI5
aI0
aI3
aI0
aI0
aI0
aI0
aI3
aI1
aI1
aI0
aI0
aI0
aI0
aI0
aI0
aI0
aI0
aI0
aI0
aI0
aI0
aI0
aI0
aI0
aI0
assI3
(dp21
S'FleeBehavior'
p22
(lp23
I10
aI1
aI13
aI40
aI4
aI54
aI1
aI2
aI8
aI36
aI10
aI38
aI26
aI27
aI35
aI40
aI38
aI2
aI1
aI0
aI0
aI0
aI2
aI14
aI2
aI1
aI1
aI0
aI0
aI3
aI2
aI0
aI1
aI22
aI2
aI4
aI0
aI3
aI6
aI3
aI46
aI61
aI59
aI45
aI35
aI13
aI27
aI35
aI25
aI24
aI60
aI60
aI46
aI18
aI45
aI77
aI12
aI8
aI12
aI39
aI59
aI29
aI8
aI0
aI1
aI1
aI0
aI0
aI1
aI1
aI1
aI4
aI2
aI2
aI2
aI2
aI0
aI1
aI2
aI2
aI0
aI0
aI3
aI1
aI0
aI0
aI1
aI0
aI6
aI0
aI0
aI4
aI0
aI3
aI1
aI0
aI0
aI0
aI0
aI2
aI0
aI0
aI0
aI0
aI0
aI0
aI0
aI0
aI0
aI0
aI0
aI0
aI0
aI0
aI0
asS'PursueBehavior'
p24
(lp25
I5
aI5
aI1
aI9
aI24
aI28
aI6
aI18
aI70
aI1
aI0
aI0
aI0
aI1
aI1
aI0
aI10
aI2
aI0
aI2
aI1
aI1
aI5
aI6
aI3
aI0
aI4
aI1
aI0
aI3
aI24
aI16
aI40
aI81
aI36
aI33
aI0
aI1
aI41
aI16
aI15
aI9
aI4
aI0
aI2
aI0
aI0
aI1
aI2
aI2
aI2
aI2
aI1
aI0
aI2
aI2
aI1
aI0
aI0
aI3
aI2
aI1
aI1
aI1
aI3
aI2
aI4
aI2
aI1
aI1
aI0
aI1
aI0
aI1
aI3
aI4
aI0
aI1
aI4
aI1
aI1
aI1
aI21
aI1
aI0
aI1
aI1
aI2
aI39
aI2
aI1
aI33
aI1
aI2
aI1
aI0
aI2
aI1
aI2
aI1
aI0
aI0
aI0
aI0
aI0
aI0
aI0
aI0
aI0
aI0
aI0
aI0
aI0
aI0
aI0
asS'SeekBehavior'
p26
(lp27
I9
aI39
aI0
aI1
aI0
aI5
aI22
aI1
aI8
aI0
aI0
aI3
aI3
aI0
aI2
aI5
aI66
aI46
aI14
aI15
aI35
aI15
aI32
aI72
aI32
aI28
aI27
aI29
aI28
aI45
aI49
aI2
aI2
aI10
aI14
aI16
aI25
aI54
aI70
aI5
aI20
aI40
aI5
aI3
aI2
aI1
aI0
aI2
aI1
aI1
aI2
aI1
aI3
aI4
aI2
aI6
aI7
aI2
aI0
aI6
aI2
aI10
aI16
aI23
aI28
aI21
aI34
aI26
aI17
aI17
aI16
aI53
aI18
aI29
aI17
aI76
aI25
aI54
aI62
aI19
aI21
aI22
aI60
aI26
aI12
aI24
aI13
aI29
aI52
aI83
aI12
aI58
aI29
aI56
aI25
aI20
aI29
aI33
aI23
aI25
aI27
aI84
aI30
aI49
aI51
aI26
aI20
aI34
aI44
aI15
aI20
aI59
aI34
aI11
aI20
assI4
(dp28
S'FleeBehavior'
p29
(lp30
I3
aI14
aI14
aI50
aI25
aI57
aI4
aI1
aI7
aI9
aI5
aI39
aI28
aI26
aI35
aI31
aI47
aI36
aI13
aI15
aI28
aI3
aI3
aI34
aI5
aI5
aI4
aI10
aI0
aI8
aI14
aI2
aI4
aI28
aI6
aI12
aI0
aI2
aI11
aI0
aI11
aI24
aI16
aI1
aI4
aI0
aI4
aI1
aI2
aI0
aI3
aI6
aI1
aI1
aI3
aI6
aI2
aI1
aI1
aI0
aI3
aI2
aI4
aI1
aI1
aI6
aI3
aI2
aI0
aI3
aI1
aI9
aI4
aI4
aI0
aI13
aI4
aI11
aI14
aI3
aI7
aI16
aI46
aI26
aI12
aI23
aI10
aI27
aI65
aI69
aI10
aI55
aI29
aI56
aI24
aI19
aI28
aI32
aI22
aI27
aI26
aI47
aI30
aI48
aI44
aI26
aI20
aI34
aI42
aI15
aI20
aI57
aI34
aI11
aI20
asS'PursueBehavior'
p31
(lp32
I13
aI0
aI0
aI0
aI3
aI3
aI3
aI1
aI14
aI0
aI0
aI1
aI1
aI1
aI2
aI10
aI42
aI8
aI2
aI0
aI0
aI2
aI1
aI6
aI1
aI1
aI1
aI2
aI1
aI4
aI1
aI1
aI3
aI20
aI6
aI31
aI1
aI4
aI72
aI22
aI66
aI41
aI43
aI3
aI1
aI1
aI1
aI1
aI2
aI1
aI2
aI2
aI1
aI2
aI3
aI14
aI18
aI9
aI11
aI48
aI59
aI32
aI1
aI0
aI0
aI0
aI4
aI0
aI0
aI0
aI2
aI2
aI2
aI1
aI2
aI8
aI0
aI2
aI2
aI3
aI2
aI0
aI19
aI1
aI0
aI1
aI1
aI0
aI5
aI2
aI1
aI17
aI0
aI3
aI1
aI0
aI1
aI2
aI0
aI1
aI0
aI37
aI0
aI0
aI0
aI0
aI0
aI0
aI0
aI0
aI0
aI0
aI0
aI0
aI0
asS'SeekBehavior'
p33
(lp34
I8
aI31
aI0
aI0
aI0
aI26
aI22
aI19
aI65
aI28
aI5
aI1
aI0
aI1
aI1
aI4
aI25
aI6
aI0
aI2
aI7
aI11
aI35
aI52
aI30
aI23
aI27
aI18
aI27
aI39
aI60
aI15
aI36
aI65
aI40
aI10
aI24
aI51
aI34
aI1
aI4
aI45
aI9
aI44
aI34
aI13
aI22
aI36
aI24
aI25
aI59
aI55
aI48
aI19
aI43
aI65
aI0
aI0
aI0
aI0
aI1
aI6
aI20
aI23
aI31
aI18
aI31
aI25
aI19
aI16
aI13
aI47
aI14
aI27
aI20
aI61
aI21
aI43
aI52
aI16
aI13
aI7
aI19
aI1
aI0
aI1
aI4
aI4
aI27
aI14
aI2
aI22
aI1
aI2
aI2
aI0
aI2
aI0
aI2
aI0
aI0
aI0
aI0
aI1
aI6
aI0
aI0
aI0
aI2
aI0
aI0
aI2
aI0
aI0
aI0
asss.