(dp0
S'learn_scores'
p1
(lp2
F-387.0
aF-386.0
aF7.0
aF-316.0
aF-440.0
aF-429.0
aF-352.0
aF-471.0
aF183.0
aF-292.0
aF-437.0
aF-227.0
aF-273.0
aF-408.0
aF-403.0
aF-453.0
aF170.0
aF-456.0
aF-433.0
aF-408.0
aF-435.0
aF-428.0
aF-443.0
aF-91.0
aF-381.0
aF-364.0
aF-441.0
aF-438.0
aF-393.0
aF-433.0
aF-400.0
aF-120.0
aF-437.0
aF-400.0
aF-355.0
aF-319.0
aF-446.0
aF-376.0
aF-454.0
aF-462.0
aF-487.0
aF264.0
aF-355.0
aF-455.0
aF-450.0
aF-424.0
aF-455.0
aF-422.0
aF124.0
aF-321.0
aF-385.0
aF-455.0
aF-459.0
aF-432.0
aF-436.0
aF-394.0
aF-450.0
aF-446.0
aF-443.0
aF-414.0
aF-478.0
aF-460.0
aF-460.0
aF-428.0
aF-357.0
aF-422.0
aF-434.0
aF-344.0
aF-440.0
aF-298.0
aF-189.0
aF-434.0
aF-390.0
aF-323.0
aF-261.0
aF-462.0
aF-372.0
aF-448.0
aF-350.0
aF-452.0
aF-390.0
aF-422.0
aF-359.0
aF-358.0
aF-415.0
aF-423.0
aF-387.0
aF-358.0
aF-355.0
aF-352.0
aF-353.0
aF-434.0
aF-421.0
aF-408.0
aF-394.0
aF-332.0
aF-331.0
aF-369.0
aF-390.0
aF-48.0
asS'test_scores'
p3
(lp4
F-400.0
aF-467.0
aF-368.0
aF-312.0
aF-454.0
aF-385.0
aF-316.0
aF-368.0
aF-477.0
aF-317.0
aF-372.0
aF-418.0
aF-285.0
aF-418.0
aF-479.0
asS'behavior_count'
p5
(dp6
I1
(dp7
S'FleeBehavior'
p8
(lp9
I6
aI5
aI48
aI1
aI3
aI1
aI1
aI0
aI26
aI56
aI27
aI82
aI4
aI3
aI1
aI1
aI5
aI1
aI1
aI0
aI2
aI0
aI0
aI8
aI0
aI1
aI0
aI1
aI4
aI1
aI2
aI5
aI18
aI20
aI25
aI85
aI15
aI35
aI11
aI12
aI27
aI126
aI11
aI4
aI18
aI14
aI10
aI3
aI26
aI3
aI8
aI22
aI17
aI31
aI34
aI41
aI19
aI14
aI12
aI21
aI16
aI10
aI20
aI24
aI38
aI22
aI32
aI79
aI19
aI93
aI90
aI4
aI2
aI0
aI2
aI0
aI0
aI1
aI2
aI2
aI2
aI2
aI3
aI0
aI3
aI0
aI2
aI0
aI1
aI2
aI0
aI1
aI2
aI2
aI1
aI1
aI1
aI0
aI1
aI0
aI0
aI0
aI0
aI0
aI0
aI0
aI0
aI0
aI0
aI0
aI0
aI0
aI0
aI0
aI0
asS'PursueBehavior'
p10
(lp11
I13
aI0
aI6
aI35
aI0
aI0
aI2
aI0
aI26
aI4
aI0
aI4
aI10
aI6
aI20
aI2
aI13
aI24
aI32
aI28
aI22
aI27
aI22
aI139
aI21
aI29
aI14
aI5
aI26
aI0
aI1
aI56
aI0
aI0
aI0
aI2
aI1
aI0
aI1
aI1
aI1
aI13
aI1
aI0
aI0
aI1
aI1
aI2
aI46
aI2
aI0
aI0
aI0
aI1
aI2
aI1
aI0
aI0
aI1
aI0
aI2
aI0
aI0
aI2
aI0
aI1
aI2
aI1
aI1
aI1
aI9
aI21
aI43
aI31
aI50
aI21
aI21
aI27
aI38
aI11
aI37
aI20
aI55
aI29
aI30
aI14
aI43
aI37
aI24
aI30
aI42
aI13
aI29
aI46
aI24
aI30
aI58
aI30
aI27
aI74
aI20
aI18
aI39
aI73
aI25
aI25
aI76
aI38
aI18
aI58
aI33
aI19
aI76
aI48
aI20
asS'SeekBehavior'
p12
(lp13
I8
aI32
aI29
aI10
aI17
aI29
aI39
aI21
aI86
aI3
aI1
aI11
aI59
aI40
aI3
aI31
aI63
aI2
aI1
aI1
aI1
aI1
aI1
aI5
aI1
aI4
aI7
aI3
aI23
aI23
aI27
aI100
aI0
aI1
aI1
aI3
aI1
aI2
aI3
aI0
aI0
aI8
aI13
aI21
aI2
aI0
aI4
aI18
aI55
aI27
aI17
aI4
aI2
aI0
aI1
aI2
aI1
aI2
aI0
aI3
aI1
aI1
aI0
aI3
aI0
aI0
aI1
aI4
aI0
aI5
aI11
aI0
aI6
aI2
aI0
aI1
aI1
aI1
aI0
aI0
aI1
aI1
aI1
aI0
aI3
aI0
aI3
aI2
aI0
aI1
aI1
aI0
aI1
aI0
aI0
aI2
aI2
aI0
aI2
aI5
aI0
aI0
aI0
aI0
aI0
aI0
aI0
aI0
aI0
aI0
aI0
aI0
aI0
aI0
aI0
assI2
(dp14
S'FleeBehavior'
p15
(lp16
I8
aI0
aI12
aI43
aI20
aI27
aI38
aI21
aI103
aI11
aI27
aI73
aI18
aI3
aI19
aI31
aI54
aI8
aI0
aI6
aI24
aI25
aI21
aI116
aI2
aI3
aI13
aI0
aI3
aI0
aI1
aI63
aI1
aI3
aI4
aI3
aI1
aI1
aI0
aI0
aI2
aI45
aI0
aI0
aI2
aI1
aI0
aI1
aI10
aI3
aI1
aI0
aI0
aI0
aI0
aI1
aI0
aI0
aI0
aI0
aI1
aI1
aI0
aI2
aI1
aI0
aI2
aI5
aI1
aI2
aI2
aI3
aI0
aI1
aI2
aI1
aI0
aI1
aI2
aI1
aI2
aI1
aI4
aI4
aI2
aI0
aI1
aI1
aI1
aI1
aI0
aI0
aI1
aI0
aI1
aI0
aI3
aI0
aI2
aI35
aI0
aI0
aI0
aI0
aI0
aI0
aI0
aI0
aI0
aI0
aI0
aI0
aI39
aI0
aI0
asS'PursueBehavior'
p17
(lp18
I9
aI2
aI11
aI2
aI0
aI2
aI3
aI0
aI22
aI46
aI0
aI17
aI52
aI43
aI2
aI3
aI24
aI15
aI33
aI17
aI1
aI3
aI1
aI16
aI18
aI31
aI8
aI9
aI48
aI24
aI29
aI85
aI17
aI15
aI5
aI79
aI13
aI12
aI2
aI0
aI0
aI10
aI9
aI3
aI18
aI12
aI14
aI20
aI84
aI26
aI24
aI25
aI18
aI29
aI35
aI40
aI19
aI15
aI12
aI23
aI17
aI9
aI19
aI26
aI37
aI20
aI32
aI76
aI17
aI91
aI100
aI19
aI48
aI26
aI40
aI21
aI20
aI24
aI31
aI2
aI1
aI0
aI1
aI4
aI0
aI0
aI1
aI2
aI2
aI0
aI7
aI12
aI25
aI14
aI1
aI4
aI1
aI5
aI0
aI3
aI20
aI18
aI38
aI67
aI24
aI22
aI75
aI38
aI16
aI40
aI32
aI18
aI37
aI41
aI20
asS'SeekBehavior'
p19
(lp20
I10
aI35
aI60
aI1
aI0
aI0
aI1
aI0
aI13
aI6
aI1
aI7
aI3
aI3
aI3
aI0
aI3
aI3
aI1
aI6
aI0
aI0
aI1
aI20
aI2
aI0
aI0
aI0
aI2
aI0
aI0
aI13
aI0
aI3
aI16
aI7
aI3
aI24
aI13
aI13
aI26
aI92
aI16
aI22
aI0
aI1
aI1
aI2
aI33
aI3
aI0
aI1
aI1
aI3
aI2
aI3
aI1
aI1
aI1
aI1
aI0
aI1
aI1
aI1
aI0
aI2
aI1
aI3
aI2
aI6
aI7
aI3
aI3
aI6
aI10
aI0
aI2
aI4
aI7
aI10
aI37
aI22
aI54
aI21
aI34
aI13
aI46
aI36
aI22
aI31
aI36
aI2
aI6
aI34
aI23
aI28
aI57
aI25
aI28
aI41
aI0
aI0
aI1
aI5
aI1
aI3
aI1
aI0
aI1
aI18
aI1
aI1
aI0
aI7
aI0
assI3
(dp21
S'FleeBehavior'
p22
(lp23
I3
aI5
aI32
aI6
aI19
aI28
aI40
aI20
aI86
aI3
aI3
aI25
aI10
aI1
aI1
aI3
aI20
aI1
aI1
aI0
aI1
aI1
aI0
aI14
aI3
aI2
aI0
aI2
aI1
aI0
aI0
aI3
aI0
aI0
aI0
aI3
aI1
aI2
aI0
aI0
aI0
aI15
aI0
aI1
aI2
aI1
aI0
aI0
aI4
aI2
aI1
aI2
aI1
aI0
aI0
aI3
aI1
aI1
aI0
aI2
aI1
aI0
aI1
aI1
aI2
aI0
aI2
aI4
aI0
aI4
aI2
aI1
aI4
aI0
aI2
aI0
aI3
aI0
aI1
aI0
aI0
aI0
aI3
aI1
aI0
aI2
aI2
aI1
aI2
aI1
aI1
aI0
aI1
aI2
aI0
aI0
aI2
aI1
aI1
aI10
aI0
aI0
aI0
aI0
aI0
aI0
aI0
aI0
aI0
aI0
aI0
aI0
aI0
aI0
aI0
asS'PursueBehavior'
p24
(lp25
I8
aI0
aI23
aI10
aI0
aI0
aI0
aI0
aI12
aI21
aI1
aI13
aI4
aI38
aI20
aI29
aI29
aI0
aI0
aI0
aI0
aI0
aI1
aI4
aI0
aI3
aI14
aI5
aI41
aI23
aI29
aI97
aI16
aI19
aI24
aI78
aI13
aI13
aI0
aI0
aI0
aI19
aI2
aI2
aI0
aI0
aI0
aI0
aI3
aI2
aI1
aI1
aI7
aI25
aI3
aI4
aI1
aI0
aI1
aI1
aI1
aI1
aI0
aI1
aI2
aI1
aI1
aI3
aI1
aI7
aI4
aI0
aI3
aI0
aI7
aI2
aI1
aI3
aI0
aI3
aI3
aI1
aI5
aI1
aI2
aI0
aI2
aI2
aI15
aI2
aI3
aI0
aI2
aI13
aI7
aI1
aI9
aI0
aI0
aI8
aI0
aI0
aI0
aI0
aI0
aI0
aI0
aI0
aI0
aI0
aI0
aI0
aI0
aI0
aI0
asS'SeekBehavior'
p26
(lp27
I16
aI31
aI28
aI30
aI1
aI1
aI2
aI1
aI40
aI39
aI24
aI59
aI59
aI10
aI3
aI2
aI32
aI25
aI33
aI29
aI24
aI27
aI22
aI134
aI19
aI29
aI7
aI2
aI11
aI1
aI1
aI61
aI2
aI1
aI1
aI8
aI2
aI22
aI14
aI12
aI27
aI113
aI23
aI22
aI18
aI13
aI15
aI22
aI120
aI28
aI23
aI23
aI11
aI7
aI34
aI37
aI18
aI15
aI12
aI21
aI16
aI9
aI19
aI26
aI34
aI21
aI32
aI77
aI19
aI87
aI103
aI23
aI44
aI33
aI42
aI20
aI18
aI25
aI39
aI10
aI37
aI21
aI51
aI27
aI34
aI11
aI44
aI36
aI8
aI29
aI39
aI14
aI29
aI33
aI17
aI31
aI50
aI28
aI29
aI60
aI20
aI18
aI39
aI72
aI25
aI25
aI76
aI38
aI17
aI57
aI33
aI19
aI76
aI48
aI20
assI4
(dp28
S'FleeBehavior'
p29
(lp30
I12
aI33
aI28
aI36
aI2
aI1
aI2
aI1
aI17
aI12
aI27
aI67
aI61
aI46
aI23
aI31
aI54
aI1
aI2
aI0
aI2
aI10
aI20
aI92
aI19
aI32
aI21
aI7
aI49
aI23
aI27
aI77
aI18
aI19
aI22
aI43
aI15
aI26
aI0
aI0
aI1
aI26
aI20
aI24
aI16
aI13
aI14
aI21
aI77
aI30
aI23
aI23
aI17
aI29
aI34
aI40
aI20
aI15
aI13
aI23
aI16
aI9
aI20
aI24
aI35
aI21
aI34
aI77
aI17
aI92
aI102
aI21
aI48
aI30
aI46
aI3
aI2
aI0
aI1
aI0
aI2
aI3
aI3
aI1
aI1
aI0
aI2
aI0
aI1
aI1
aI5
aI0
aI1
aI4
aI0
aI2
aI3
aI0
aI1
aI1
aI0
aI0
aI0
aI7
aI0
aI0
aI10
aI0
aI0
aI0
aI0
aI0
aI1
aI0
aI2
asS'PursueBehavior'
p31
(lp32
I3
aI0
aI14
aI9
aI18
aI27
aI39
aI20
aI96
aI2
aI0
aI5
aI5
aI1
aI1
aI2
aI24
aI2
aI1
aI3
aI0
aI0
aI2
aI4
aI1
aI1
aI0
aI1
aI3
aI1
aI1
aI31
aI0
aI0
aI3
aI43
aI0
aI3
aI0
aI1
aI1
aI42
aI4
aI1
aI1
aI0
aI0
aI1
aI5
aI0
aI2
aI0
aI0
aI1
aI2
aI2
aI0
aI1
aI0
aI1
aI0
aI0
aI0
aI3
aI0
aI0
aI1
aI1
aI2
aI4
aI2
aI1
aI0
aI2
aI0
aI0
aI0
aI2
aI2
aI0
aI0
aI0
aI4
aI0
aI1
aI0
aI0
aI2
aI1
aI0
aI0
aI0
aI1
aI3
aI2
aI2
aI0
aI1
aI0
aI2
aI0
aI0
aI0
aI0
aI0
aI0
aI0
aI0
aI0
aI0
aI0
aI0
aI0
aI0
aI0
asS'SeekBehavior'
p33
(lp34
I12
aI3
aI41
aI1
aI0
aI1
aI1
aI0
aI24
aI48
aI0
aI25
aI7
aI1
aI0
aI0
aI3
aI23
aI31
aI25
aI23
aI18
aI1
aI56
aI1
aI1
aI0
aI0
aI1
aI0
aI2
aI53
aI0
aI1
aI0
aI3
aI1
aI7
aI14
aI11
aI25
aI79
aI1
aI0
aI3
aI1
aI1
aI0
aI44
aI1
aI0
aI2
aI2
aI2
aI0
aI2
aI0
aI0
aI0
aI0
aI2
aI1
aI0
aI1
aI2
aI1
aI0
aI6
aI1
aI2
aI5
aI2
aI2
aI1
aI5
aI19
aI20
aI26
aI37
aI12
aI38
aI19
aI52
aI27
aI33
aI13
aI45
aI37
aI23
aI31
aI38
aI14
aI29
aI41
aI22
aI28
aI58
aI28
aI29
aI75
aI20
aI18
aI38
aI65
aI24
aI25
aI66
aI38
aI17
aI57
aI33
aI18
aI75
aI48
aI18
asss.