(dp0
S'learn_scores'
p1
(lp2
F-465.0
aF-415.0
aF-441.0
aF-317.0
aF-476.0
aF-323.0
aF-249.0
aF-418.0
aF-419.0
aF-417.0
aF-439.0
aF-378.0
aF-283.0
aF-418.0
aF-453.0
aF-389.0
aF-400.0
aF-458.0
aF-468.0
aF-434.0
aF-439.0
aF-366.0
aF-226.0
aF-439.0
aF56.0
aF-425.0
aF-380.0
aF-485.0
aF-15.0
aF-402.0
aF-8.0
aF-473.0
aF-317.0
aF-442.0
aF-353.0
aF-315.0
aF-421.0
aF-390.0
aF-447.0
aF-423.0
aF-442.0
aF-438.0
aF-330.0
aF-416.0
aF-408.0
aF-72.0
aF-418.0
aF-411.0
aF-224.0
aF-411.0
aF-372.0
aF-440.0
aF-401.0
aF-401.0
aF-174.0
aF-410.0
aF-407.0
aF-395.0
aF-416.0
aF-434.0
aF-332.0
aF-468.0
aF-394.0
aF-92.0
aF-336.0
aF-337.0
aF-430.0
aF-426.0
aF-353.0
aF-380.0
aF-426.0
aF-281.0
aF-454.0
aF-381.0
aF-436.0
aF-377.0
aF-450.0
aF-462.0
aF-402.0
aF-120.0
aF-385.0
aF-390.0
aF-416.0
aF-218.0
aF-412.0
aF-458.0
aF-426.0
aF-276.0
aF-343.0
aF-437.0
aF-375.0
aF-465.0
aF-357.0
aF-467.0
aF-314.0
aF-430.0
aF-428.0
aF-356.0
aF-377.0
aF-303.0
asS'test_scores'
p3
(lp4
F-375.0
aF-313.0
aF-375.0
aF-330.0
aF-353.0
aF-413.0
aF-386.0
aF-446.0
aF-238.0
aF-401.0
aF-459.0
aF-440.0
aF-434.0
aF-224.0
aF-426.0
asS'behavior_count'
p5
(dp6
I1
(dp7
S'FleeBehavior'
p8
(lp9
I10
aI0
aI0
aI2
aI0
aI2
aI13
aI26
aI28
aI17
aI10
aI35
aI52
aI28
aI33
aI58
aI36
aI1
aI0
aI3
aI14
aI33
aI52
aI10
aI52
aI23
aI26
aI0
aI7
aI5
aI69
aI12
aI44
aI12
aI53
aI50
aI41
aI27
aI15
aI23
aI11
aI19
aI27
aI14
aI16
aI56
aI18
aI11
aI91
aI29
aI22
aI17
aI30
aI56
aI63
aI44
aI25
aI26
aI16
aI10
aI50
aI15
aI24
aI32
aI36
aI34
aI9
aI27
aI39
aI30
aI15
aI68
aI23
aI29
aI25
aI26
aI19
aI11
aI18
aI61
aI33
aI18
aI25
aI68
aI21
aI19
aI26
aI41
aI41
aI32
aI24
aI14
aI28
aI36
aI42
aI18
aI19
aI26
aI37
aI43
aI26
aI54
aI36
aI111
aI44
aI24
aI47
aI16
aI79
aI22
aI20
aI11
aI24
aI105
aI27
asS'PursueBehavior'
p10
(lp11
I2
aI19
aI22
aI31
aI16
aI44
aI43
aI0
aI1
aI0
aI0
aI0
aI1
aI0
aI0
aI0
aI0
aI0
aI1
aI0
aI0
aI1
aI11
aI0
aI18
aI3
aI1
aI0
aI30
aI1
aI5
aI1
aI2
aI0
aI0
aI3
aI1
aI1
aI3
aI1
aI1
aI0
aI2
aI0
aI1
aI2
aI0
aI0
aI3
aI2
aI0
aI2
aI1
aI1
aI8
aI5
aI2
aI9
aI28
aI4
aI19
aI3
aI0
aI34
aI1
aI1
aI0
aI0
aI3
aI0
aI2
aI1
aI0
aI2
aI2
aI1
aI0
aI0
aI0
aI19
aI0
aI1
aI1
aI0
aI0
aI0
aI1
aI2
aI0
aI4
aI0
aI0
aI0
aI2
aI3
aI2
aI0
aI0
aI0
aI0
aI0
aI0
aI0
aI0
aI0
aI0
aI0
aI0
aI0
aI0
aI0
aI0
aI0
aI0
aI0
asS'SeekBehavior'
p12
(lp13
I23
aI6
aI0
aI5
aI1
aI8
aI14
aI2
aI1
aI1
aI0
aI3
aI0
aI1
aI0
aI2
aI5
aI18
aI17
aI22
aI5
aI3
aI54
aI0
aI25
aI0
aI4
aI16
aI69
aI17
aI35
aI1
aI2
aI1
aI1
aI2
aI0
aI3
aI0
aI0
aI0
aI0
aI2
aI3
aI1
aI24
aI0
aI0
aI1
aI1
aI1
aI1
aI1
aI4
aI33
aI2
aI1
aI1
aI3
aI1
aI4
aI1
aI1
aI7
aI0
aI2
aI1
aI0
aI1
aI1
aI0
aI3
aI1
aI0
aI0
aI1
aI1
aI1
aI4
aI1
aI3
aI1
aI1
aI1
aI2
aI0
aI0
aI3
aI2
aI2
aI1
aI1
aI0
aI0
aI0
aI1
aI0
aI1
aI1
aI1
aI0
aI0
aI0
aI0
aI0
aI0
aI0
aI0
aI0
aI0
aI0
aI0
aI0
aI0
aI0
assI2
(dp14
S'FleeBehavior'
p15
(lp16
I23
aI0
aI1
aI1
aI2
aI35
aI11
aI2
aI0
aI2
aI0
aI1
aI3
aI2
aI17
aI18
aI34
aI5
aI0
aI0
aI1
aI1
aI25
aI0
aI18
aI25
aI28
aI14
aI82
aI0
aI7
aI1
aI1
aI0
aI0
aI5
aI1
aI0
aI0
aI2
aI0
aI1
aI0
aI0
aI1
aI2
aI1
aI0
aI4
aI0
aI0
aI1
aI1
aI2
aI1
aI8
aI24
aI2
aI5
aI0
aI20
aI13
aI21
aI18
aI3
aI1
aI0
aI1
aI1
aI2
aI0
aI3
aI0
aI1
aI0
aI2
aI2
aI0
aI3
aI3
aI1
aI0
aI2
aI12
aI2
aI1
aI2
aI3
aI21
aI4
aI0
aI0
aI0
aI0
aI3
aI2
aI0
aI0
aI0
aI0
aI0
aI0
aI0
aI0
aI0
aI0
aI0
aI0
aI0
aI0
aI0
aI0
aI0
aI0
aI0
asS'PursueBehavior'
p17
(lp18
I7
aI1
aI1
aI8
aI15
aI11
aI12
aI26
aI29
aI15
aI10
aI33
aI50
aI25
aI13
aI17
aI4
aI14
aI17
aI23
aI18
aI35
aI75
aI10
aI57
aI1
aI3
aI0
aI8
aI11
aI42
aI12
aI41
aI0
aI14
aI27
aI10
aI7
aI1
aI8
aI11
aI15
aI29
aI15
aI17
aI52
aI16
aI11
aI87
aI31
aI23
aI18
aI30
aI55
aI59
aI40
aI1
aI33
aI42
aI14
aI51
aI5
aI3
aI27
aI16
aI15
aI0
aI2
aI10
aI6
aI7
aI2
aI0
aI4
aI15
aI20
aI17
aI12
aI19
aI44
aI33
aI20
aI24
aI55
aI19
aI17
aI25
aI42
aI21
aI34
aI23
aI15
aI27
aI37
aI42
aI19
aI18
aI27
aI37
aI43
aI25
aI54
aI35
aI110
aI44
aI23
aI47
aI16
aI79
aI21
aI20
aI10
aI24
aI104
aI27
asS'SeekBehavior'
p19
(lp20
I5
aI24
aI20
aI28
aI0
aI8
aI47
aI0
aI1
aI0
aI0
aI4
aI0
aI2
aI3
aI25
aI3
aI0
aI1
aI1
aI0
aI1
aI17
aI0
aI20
aI0
aI0
aI2
aI15
aI11
aI60
aI1
aI6
aI12
aI40
aI23
aI31
aI24
aI17
aI14
aI1
aI2
aI2
aI2
aI0
aI28
aI1
aI0
aI4
aI1
aI0
aI1
aI0
aI4
aI44
aI3
aI2
aI1
aI0
aI1
aI2
aI1
aI1
aI28
aI18
aI21
aI10
aI24
aI32
aI23
aI10
aI67
aI24
aI26
aI12
aI5
aI1
aI0
aI0
aI34
aI2
aI0
aI1
aI1
aI2
aI0
aI0
aI1
aI1
aI0
aI2
aI0
aI0
aI1
aI0
aI0
aI1
aI0
aI0
aI1
aI0
aI0
aI0
aI0
aI0
aI0
aI0
aI0
aI0
aI0
aI0
aI0
aI0
aI0
aI0
assI3
(dp21
S'FleeBehavior'
p22
(lp23
I6
aI1
aI0
aI0
aI0
aI6
aI12
aI21
aI0
aI1
aI0
aI2
aI6
aI0
aI1
aI3
aI0
aI1
aI1
aI1
aI1
aI1
aI19
aI2
aI38
aI3
aI13
aI0
aI4
aI0
aI12
aI14
aI45
aI12
aI49
aI52
aI40
aI29
aI17
aI22
aI10
aI14
aI28
aI16
aI16
aI66
aI18
aI9
aI85
aI29
aI22
aI19
aI26
aI58
aI62
aI48
aI26
aI32
aI45
aI13
aI67
aI17
aI23
aI41
aI26
aI31
aI10
aI25
aI42
aI28
aI14
aI67
aI23
aI31
aI25
aI25
aI16
aI12
aI20
aI46
aI35
aI17
aI25
aI62
aI22
aI18
aI24
aI44
aI39
aI37
aI21
aI11
aI24
aI35
aI41
aI19
aI18
aI24
aI32
aI41
aI25
aI54
aI35
aI105
aI43
aI23
aI47
aI16
aI79
aI21
aI20
aI10
aI24
aI104
aI27
asS'PursueBehavior'
p24
(lp25
I10
aI22
aI20
aI26
aI0
aI13
aI42
aI0
aI5
aI13
aI0
aI0
aI9
aI26
aI30
aI21
aI39
aI17
aI16
aI23
aI18
aI34
aI72
aI7
aI44
aI23
aI14
aI16
aI79
aI20
aI96
aI0
aI2
aI0
aI1
aI0
aI0
aI1
aI1
aI2
aI2
aI1
aI0
aI0
aI0
aI16
aI0
aI1
aI3
aI1
aI0
aI1
aI0
aI3
aI39
aI1
aI0
aI1
aI2
aI1
aI3
aI1
aI1
aI10
aI1
aI4
aI0
aI1
aI1
aI1
aI1
aI3
aI0
aI0
aI0
aI0
aI4
aI0
aI2
aI6
aI1
aI2
aI1
aI5
aI0
aI0
aI3
aI1
aI2
aI1
aI3
aI2
aI1
aI2
aI3
aI1
aI0
aI0
aI2
aI2
aI0
aI0
aI0
aI5
aI0
aI0
aI0
aI0
aI0
aI0
aI0
aI0
aI0
aI0
aI0
asS'SeekBehavior'
p26
(lp27
I19
aI2
aI1
aI11
aI17
aI35
aI15
aI7
aI25
aI3
aI9
aI36
aI38
aI2
aI2
aI36
aI2
aI0
aI1
aI0
aI0
aI1
aI25
aI1
aI13
aI0
aI3
aI0
aI22
aI2
aI0
aI0
aI1
aI0
aI3
aI3
aI2
aI0
aI0
aI0
aI0
aI3
aI3
aI1
aI2
aI0
aI0
aI1
aI6
aI1
aI0
aI0
aI5
aI0
aI3
aI2
aI1
aI2
aI0
aI1
aI3
aI1
aI0
aI22
aI10
aI2
aI0
aI1
aI0
aI1
aI1
aI2
aI1
aI0
aI1
aI2
aI0
aI0
aI0
aI29
aI0
aI1
aI1
aI1
aI1
aI0
aI0
aI1
aI2
aI0
aI1
aI2
aI2
aI1
aI0
aI1
aI0
aI2
aI3
aI0
aI0
aI0
aI0
aI0
aI0
aI0
aI0
aI0
aI0
aI0
aI0
aI0
aI0
aI0
aI0
assI4
(dp28
S'FleeBehavior'
p29
(lp30
I10
aI0
aI1
aI9
aI2
aI12
aI35
aI2
aI1
aI0
aI1
aI1
aI9
aI23
aI29
aI46
aI9
aI0
aI0
aI0
aI0
aI0
aI15
aI1
aI20
aI2
aI1
aI0
aI43
aI1
aI6
aI0
aI3
aI8
aI11
aI19
aI39
aI28
aI17
aI21
aI12
aI16
aI29
aI14
aI17
aI41
aI17
aI11
aI92
aI29
aI20
aI18
aI28
aI56
aI60
aI47
aI25
aI34
aI43
aI14
aI67
aI18
aI21
aI49
aI33
aI37
aI10
aI24
aI41
aI27
aI14
aI32
aI22
aI28
aI26
aI25
aI20
aI12
aI20
aI47
aI33
aI19
aI25
aI65
aI23
aI16
aI23
aI39
aI40
aI35
aI25
aI14
aI25
aI37
aI41
aI15
aI9
aI15
aI16
aI5
aI5
aI9
aI1
aI14
aI4
aI0
aI11
aI0
aI14
aI4
aI0
aI2
aI1
aI23
aI2
asS'PursueBehavior'
p31
(lp32
I9
aI24
aI20
aI23
aI1
aI1
aI18
aI22
aI3
aI1
aI0
aI1
aI6
aI0
aI0
aI5
aI15
aI0
aI0
aI1
aI1
aI2
aI24
aI9
aI68
aI23
aI27
aI16
aI48
aI18
aI61
aI13
aI44
aI4
aI41
aI35
aI1
aI2
aI1
aI0
aI0
aI2
aI0
aI2
aI0
aI10
aI0
aI0
aI1
aI0
aI1
aI2
aI2
aI1
aI30
aI2
aI1
aI0
aI3
aI0
aI4
aI0
aI1
aI9
aI3
aI0
aI0
aI1
aI0
aI2
aI2
aI37
aI1
aI0
aI0
aI2
aI0
aI0
aI2
aI29
aI1
aI1
aI0
aI1
aI0
aI2
aI1
aI4
aI2
aI2
aI0
aI1
aI2
aI1
aI2
aI3
aI9
aI11
aI19
aI38
aI20
aI44
aI34
aI96
aI39
aI23
aI36
aI16
aI65
aI17
aI19
aI8
aI23
aI81
aI25
asS'SeekBehavior'
p33
(lp34
I16
aI1
aI0
aI5
aI13
aI40
aI16
aI4
aI25
aI16
aI8
aI36
aI38
aI5
aI4
aI9
aI17
aI18
aI18
aI23
aI18
aI34
aI77
aI0
aI6
aI0
aI2
aI0
aI14
aI3
aI41
aI1
aI1
aI0
aI1
aI1
aI2
aI0
aI0
aI2
aI0
aI0
aI1
aI1
aI1
aI31
aI1
aI0
aI1
aI2
aI1
aI0
aI1
aI4
aI14
aI1
aI1
aI1
aI1
aI1
aI2
aI1
aI2
aI15
aI1
aI0
aI0
aI2
aI2
aI1
aI0
aI3
aI1
aI3
aI0
aI0
aI0
aI0
aI0
aI4
aI2
aI0
aI1
aI2
aI0
aI0
aI2
aI3
aI1
aI1
aI0
aI0
aI0
aI0
aI1
aI2
aI0
aI0
aI2
aI0
aI0
aI0
aI0
aI0
aI0
aI0
aI0
aI0
aI0
aI0
aI0
aI0
aI0
aI0
aI0
asss.