(dp0
S'learn_scores'
p1
(lp2
F-346.0
aF-253.0
aF-401.0
aF-344.0
aF-373.0
aF-415.0
aF-363.0
aF-368.0
aF-418.0
aF-395.0
aF30.0
aF-376.0
aF-377.0
aF-372.0
aF-409.0
aF-77.0
aF-419.0
aF-428.0
aF-426.0
aF-434.0
aF-333.0
aF-406.0
aF-409.0
aF-448.0
aF-391.0
aF-362.0
aF-416.0
aF-150.0
aF-422.0
aF-437.0
aF539.0
aF-442.0
aF-461.0
aF-266.0
aF-453.0
aF-417.0
aF-357.0
aF-436.0
aF-385.0
aF275.0
aF-395.0
aF-441.0
aF-277.0
aF-404.0
aF-373.0
aF-413.0
aF-265.0
aF-398.0
aF-48.0
aF-360.0
aF-430.0
aF-401.0
aF-396.0
aF-368.0
aF-364.0
aF-271.0
aF-328.0
aF-345.0
aF-33.0
aF-429.0
aF-276.0
aF-58.0
aF-424.0
aF-384.0
aF-412.0
aF-348.0
aF-208.0
aF-468.0
aF-438.0
aF76.0
aF-350.0
aF-463.0
aF-385.0
aF-348.0
aF-486.0
aF-419.0
aF-425.0
aF205.0
aF-330.0
aF-421.0
aF-354.0
aF-338.0
aF-419.0
aF-436.0
aF-396.0
aF-169.0
aF-421.0
aF-401.0
aF-355.0
aF-411.0
aF-448.0
aF-256.0
aF30.0
aF-361.0
aF-403.0
aF-419.0
aF-432.0
aF-352.0
aF-379.0
aF-311.0
asS'test_scores'
p3
(lp4
F-467.0
aF-389.0
aF-389.0
aF-328.0
aF-337.0
aF-370.0
aF-353.0
aF-308.0
aF-235.0
aF-295.0
aF-453.0
aF-453.0
aF-310.0
aF-452.0
aF-63.0
asS'behavior_count'
p5
(dp6
I1
(dp7
S'FleeBehavior'
p8
(lp9
I19
aI0
aI1
aI2
aI3
aI1
aI0
aI3
aI1
aI4
aI36
aI14
aI36
aI21
aI18
aI91
aI2
aI1
aI0
aI1
aI0
aI1
aI1
aI0
aI1
aI0
aI1
aI61
aI1
aI1
aI24
aI3
aI0
aI3
aI1
aI2
aI0
aI1
aI2
aI60
aI0
aI2
aI1
aI0
aI0
aI0
aI2
aI2
aI4
aI0
aI2
aI1
aI1
aI1
aI2
aI0
aI3
aI1
aI5
aI0
aI1
aI23
aI8
aI10
aI0
aI0
aI4
aI0
aI0
aI25
aI2
aI1
aI1
aI5
aI1
aI0
aI0
aI32
aI4
aI0
aI2
aI4
aI0
aI0
aI2
aI32
aI1
aI1
aI2
aI1
aI1
aI4
aI10
aI2
aI2
aI1
aI1
aI3
aI6
aI31
aI0
aI0
aI0
aI0
aI0
aI0
aI0
aI0
aI0
aI0
aI0
aI0
aI0
aI0
aI24
asS'PursueBehavior'
p10
(lp11
I5
aI27
aI0
aI17
aI37
aI1
aI1
aI3
aI1
aI4
aI20
aI8
aI1
aI2
aI1
aI28
aI2
aI27
aI20
aI31
aI31
aI13
aI28
aI16
aI37
aI32
aI33
aI64
aI1
aI1
aI27
aI32
aI10
aI47
aI13
aI41
aI26
aI25
aI22
aI98
aI0
aI2
aI43
aI22
aI12
aI17
aI52
aI0
aI16
aI1
aI0
aI3
aI2
aI0
aI1
aI0
aI3
aI1
aI21
aI13
aI10
aI61
aI2
aI3
aI1
aI2
aI1
aI0
aI0
aI19
aI0
aI1
aI0
aI3
aI0
aI0
aI0
aI2
aI1
aI0
aI2
aI0
aI0
aI0
aI1
aI12
aI0
aI2
aI1
aI0
aI3
aI38
aI35
aI2
aI1
aI1
aI0
aI2
aI1
aI1
aI0
aI0
aI0
aI0
aI0
aI0
aI0
aI0
aI0
aI0
aI0
aI0
aI0
aI0
aI10
asS'SeekBehavior'
p12
(lp13
I12
aI36
aI21
aI35
aI4
aI13
aI22
aI53
aI26
aI17
aI45
aI15
aI0
aI0
aI0
aI39
aI16
aI10
aI7
aI3
aI2
aI2
aI0
aI2
aI4
aI1
aI2
aI16
aI30
aI16
aI141
aI27
aI2
aI6
aI0
aI4
aI1
aI1
aI1
aI48
aI36
aI17
aI4
aI3
aI12
aI7
aI22
aI26
aI79
aI30
aI18
aI38
aI34
aI38
aI42
aI52
aI72
aI44
aI77
aI17
aI45
aI55
aI25
aI42
aI21
aI46
aI74
aI29
aI18
aI81
aI49
aI12
aI25
aI60
aI16
aI19
aI15
aI62
aI55
aI22
aI50
aI55
aI19
aI17
aI23
aI96
aI21
aI38
aI42
aI40
aI24
aI65
aI66
aI37
aI20
aI38
aI12
aI28
aI23
aI10
aI27
aI39
aI20
aI29
aI48
aI51
aI64
aI89
aI55
aI36
aI14
aI14
aI51
aI13
aI30
assI2
(dp14
S'FleeBehavior'
p15
(lp16
I8
aI19
aI13
aI11
aI20
aI14
aI22
aI47
aI25
aI25
aI76
aI8
aI32
aI19
aI9
aI101
aI14
aI4
aI1
aI0
aI1
aI1
aI1
aI4
aI1
aI8
aI1
aI14
aI17
aI3
aI71
aI33
aI3
aI34
aI14
aI42
aI27
aI25
aI23
aI168
aI28
aI18
aI40
aI12
aI22
aI22
aI54
aI26
aI65
aI1
aI12
aI15
aI23
aI8
aI27
aI5
aI22
aI21
aI56
aI9
aI17
aI65
aI30
aI48
aI22
aI44
aI68
aI27
aI17
aI79
aI46
aI5
aI6
aI41
aI8
aI1
aI5
aI13
aI18
aI12
aI21
aI16
aI2
aI7
aI5
aI68
aI13
aI29
aI34
aI24
aI8
aI36
aI23
aI0
aI9
aI27
aI1
aI10
aI2
aI8
aI3
aI3
aI5
aI1
aI13
aI1
aI4
aI21
aI11
aI3
aI0
aI1
aI19
aI2
aI3
asS'PursueBehavior'
p17
(lp18
I11
aI24
aI0
aI5
aI6
aI0
aI1
aI7
aI1
aI0
aI15
aI28
aI2
aI3
aI10
aI52
aI6
aI32
aI26
aI34
aI32
aI15
aI28
aI13
aI40
aI24
aI34
aI121
aI15
aI15
aI73
aI3
aI1
aI1
aI0
aI1
aI0
aI1
aI1
aI3
aI0
aI2
aI1
aI1
aI0
aI2
aI2
aI1
aI24
aI0
aI1
aI0
aI1
aI2
aI2
aI1
aI0
aI1
aI26
aI11
aI37
aI56
aI2
aI4
aI0
aI1
aI5
aI2
aI1
aI40
aI0
aI1
aI0
aI2
aI0
aI0
aI1
aI28
aI1
aI1
aI0
aI2
aI1
aI0
aI1
aI14
aI0
aI3
aI1
aI0
aI2
aI5
aI29
aI0
aI0
aI1
aI2
aI0
aI2
aI0
aI0
aI0
aI0
aI0
aI0
aI0
aI0
aI0
aI0
aI0
aI0
aI0
aI0
aI0
aI0
asS'SeekBehavior'
p19
(lp20
I17
aI20
aI8
aI38
aI18
aI1
aI0
aI4
aI2
aI0
aI10
aI1
aI3
aI0
aI0
aI5
aI0
aI2
aI0
aI1
aI0
aI0
aI0
aI1
aI1
aI1
aI1
aI6
aI0
aI0
aI48
aI26
aI8
aI21
aI0
aI4
aI0
aI1
aI1
aI34
aI8
aI1
aI7
aI12
aI2
aI0
aI19
aI1
aI9
aI30
aI7
aI27
aI12
aI28
aI16
aI45
aI56
aI24
aI21
aI10
aI2
aI18
aI3
aI3
aI0
aI3
aI6
aI0
aI0
aI5
aI5
aI8
aI19
aI25
aI9
aI18
aI9
aI55
aI41
aI9
aI33
aI41
aI16
aI10
aI20
aI58
aI8
aI9
aI10
aI17
aI18
aI66
aI59
aI41
aI14
aI12
aI10
aI22
aI26
aI33
aI24
aI36
aI15
aI27
aI35
aI50
aI60
aI67
aI44
aI33
aI14
aI13
aI32
aI11
aI61
assI3
(dp21
S'FleeBehavior'
p22
(lp23
I10
aI27
aI1
aI18
aI0
aI1
aI1
aI8
aI19
aI22
aI68
aI3
aI1
aI0
aI4
aI46
aI1
aI2
aI1
aI4
aI0
aI2
aI2
aI0
aI8
aI3
aI0
aI23
aI32
aI17
aI133
aI20
aI11
aI54
aI12
aI41
aI25
aI24
aI23
aI161
aI34
aI18
aI24
aI5
aI13
aI5
aI36
aI26
aI55
aI28
aI19
aI38
aI35
aI32
aI40
aI39
aI31
aI8
aI24
aI8
aI15
aI48
aI24
aI22
aI2
aI14
aI51
aI29
aI16
aI86
aI46
aI13
aI25
aI65
aI17
aI16
aI15
aI62
aI16
aI20
aI50
aI54
aI1
aI12
aI24
aI56
aI20
aI37
aI40
aI36
aI25
aI66
aI67
aI35
aI23
aI37
aI12
aI31
aI28
aI40
aI27
aI39
aI19
aI28
aI47
aI51
aI64
aI88
aI55
aI36
aI14
aI14
aI50
aI13
aI30
asS'PursueBehavior'
p24
(lp25
I13
aI5
aI20
aI36
aI42
aI14
aI21
aI48
aI5
aI0
aI10
aI33
aI35
aI20
aI15
aI90
aI19
aI35
aI22
aI29
aI31
aI14
aI27
aI18
aI31
aI29
aI36
aI115
aI0
aI1
aI28
aI0
aI0
aI2
aI1
aI3
aI2
aI0
aI1
aI7
aI1
aI0
aI1
aI2
aI1
aI2
aI3
aI1
aI22
aI0
aI1
aI2
aI0
aI3
aI2
aI0
aI4
aI1
aI10
aI1
aI1
aI3
aI1
aI1
aI3
aI0
aI7
aI0
aI1
aI22
aI0
aI0
aI0
aI1
aI0
aI2
aI0
aI29
aI14
aI2
aI3
aI4
aI16
aI1
aI0
aI22
aI0
aI2
aI0
aI3
aI2
aI10
aI5
aI3
aI0
aI1
aI1
aI1
aI2
aI1
aI0
aI0
aI0
aI0
aI0
aI0
aI0
aI0
aI0
aI0
aI0
aI0
aI0
aI0
aI0
asS'SeekBehavior'
p26
(lp27
I13
aI31
aI0
aI0
aI2
aI0
aI1
aI2
aI4
aI3
aI23
aI0
aI1
aI2
aI0
aI22
aI0
aI1
aI3
aI2
aI2
aI0
aI0
aI0
aI3
aI0
aI0
aI3
aI0
aI0
aI30
aI42
aI0
aI0
aI0
aI3
aI0
aI3
aI1
aI37
aI1
aI3
aI23
aI18
aI10
aI16
aI36
aI1
aI21
aI3
aI0
aI2
aI1
aI3
aI3
aI12
aI43
aI37
aI69
aI21
aI40
aI88
aI10
aI31
aI17
aI34
aI21
aI0
aI1
aI16
aI5
aI1
aI0
aI2
aI0
aI1
aI0
aI5
aI30
aI0
aI1
aI1
aI2
aI4
aI2
aI61
aI1
aI2
aI5
aI2
aI1
aI31
aI39
aI3
aI0
aI1
aI0
aI0
aI0
aI0
aI0
aI0
aI0
aI0
aI0
aI0
aI0
aI0
aI0
aI0
aI0
aI0
aI0
aI0
aI34
assI4
(dp28
S'FleeBehavior'
p29
(lp30
I14
aI46
aI21
aI40
aI1
aI1
aI0
aI10
aI27
aI22
aI63
aI6
aI32
aI21
aI17
aI81
aI17
aI36
aI24
aI33
aI30
aI13
aI29
aI18
aI41
aI29
aI30
aI92
aI26
aI3
aI62
aI48
aI9
aI50
aI11
aI27
aI23
aI25
aI23
aI121
aI27
aI3
aI3
aI14
aI24
aI18
aI66
aI25
aI51
aI30
aI19
aI41
aI32
aI37
aI44
aI50
aI72
aI42
aI69
aI11
aI54
aI83
aI29
aI51
aI21
aI45
aI72
aI26
aI18
aI81
aI47
aI12
aI23
aI62
aI15
aI17
aI14
aI52
aI59
aI22
aI51
aI54
aI19
aI15
aI24
aI95
aI20
aI39
aI43
aI39
aI26
aI63
aI74
aI41
aI19
aI36
aI12
aI29
aI28
aI38
aI27
aI39
aI19
aI28
aI47
aI50
aI64
aI88
aI55
aI36
aI14
aI13
aI50
aI13
aI38
asS'PursueBehavior'
p31
(lp32
I16
aI1
aI0
aI10
aI35
aI14
aI22
aI43
aI0
aI1
aI14
aI1
aI2
aI0
aI2
aI54
aI0
aI2
aI0
aI0
aI3
aI2
aI0
aI0
aI0
aI2
aI3
aI7
aI5
aI13
aI93
aI2
aI1
aI3
aI0
aI1
aI2
aI0
aI2
aI32
aI7
aI18
aI44
aI10
aI0
aI3
aI9
aI2
aI10
aI0
aI1
aI0
aI2
aI1
aI0
aI0
aI3
aI1
aI5
aI6
aI0
aI15
aI3
aI2
aI1
aI1
aI1
aI2
aI0
aI1
aI1
aI1
aI1
aI3
aI0
aI2
aI1
aI4
aI0
aI0
aI1
aI3
aI0
aI2
aI0
aI5
aI0
aI1
aI2
aI1
aI2
aI4
aI0
aI0
aI2
aI2
aI0
aI1
aI1
aI2
aI0
aI0
aI0
aI0
aI0
aI0
aI0
aI0
aI0
aI0
aI0
aI0
aI0
aI0
aI0
asS'SeekBehavior'
p33
(lp34
I6
aI16
aI0
aI4
aI8
aI0
aI1
aI5
aI1
aI2
aI23
aI29
aI3
aI1
aI0
aI22
aI3
aI0
aI2
aI1
aI0
aI1
aI0
aI0
aI0
aI1
aI3
aI41
aI1
aI1
aI36
aI12
aI1
aI3
aI2
aI19
aI2
aI1
aI0
aI52
aI1
aI0
aI1
aI0
aI0
aI2
aI0
aI1
aI37
aI1
aI0
aI0
aI2
aI0
aI0
aI1
aI3
aI3
aI29
aI12
aI2
aI41
aI2
aI1
aI0
aI2
aI5
aI0
aI0
aI42
aI2
aI0
aI1
aI3
aI2
aI0
aI0
aI39
aI1
aI0
aI2
aI2
aI0
aI0
aI2
aI39
aI1
aI1
aI0
aI1
aI0
aI39
aI36
aI0
aI2
aI1
aI0
aI2
aI0
aI1
aI0
aI0
aI0
aI0
aI0
aI0
aI0
aI0
aI0
aI0
aI0
aI0
aI0
aI0
aI26
asss.