(dp0
S'learn_scores'
p1
(lp2
F-397.0
aF-369.0
aF-109.0
aF-406.0
aF-313.0
aF-9.0
aF-400.0
aF-382.0
aF-380.0
aF-399.0
aF-359.0
aF-377.0
aF450.0
aF-425.0
aF-379.0
aF-380.0
aF-101.0
aF-365.0
aF-391.0
aF-274.0
aF-273.0
aF-429.0
aF-339.0
aF-391.0
aF-404.0
aF-438.0
aF-404.0
aF-227.0
aF-248.0
aF-341.0
aF-377.0
aF-423.0
aF-431.0
aF-328.0
aF-416.0
aF-378.0
aF-332.0
aF-435.0
aF-401.0
aF-372.0
aF-471.0
aF-422.0
aF-477.0
aF249.0
aF-474.0
aF-440.0
aF-430.0
aF-422.0
aF-349.0
aF-403.0
aF-328.0
aF-291.0
aF-444.0
aF-441.0
aF-398.0
aF-375.0
aF-465.0
aF-356.0
aF-369.0
aF-316.0
aF121.0
aF-388.0
aF-397.0
aF-395.0
aF-459.0
aF-291.0
aF-403.0
aF-429.0
aF-440.0
aF-437.0
aF-342.0
aF-88.0
aF-308.0
aF-447.0
aF-294.0
aF-478.0
aF111.0
aF-342.0
aF-398.0
aF-318.0
aF-410.0
aF-408.0
aF-457.0
aF-358.0
aF-385.0
aF-324.0
aF-470.0
aF-370.0
aF-378.0
aF-426.0
aF-214.0
aF-424.0
aF-375.0
aF-423.0
aF-429.0
aF-329.0
aF438.0
aF-346.0
aF-323.0
aF-357.0
asS'test_scores'
p3
(lp4
F-419.0
aF-474.0
aF-392.0
aF-330.0
aF-439.0
aF-335.0
aF-460.0
aF-420.0
aF-421.0
aF-370.0
aF-236.0
aF-239.0
aF-377.0
aF-287.0
aF-25.0
asS'behavior_count'
p5
(dp6
I1
(dp7
S'FleeBehavior'
p8
(lp9
I6
aI17
aI34
aI35
aI49
aI9
aI14
aI8
aI25
aI27
aI30
aI52
aI97
aI0
aI5
aI1
aI2
aI1
aI2
aI4
aI4
aI0
aI4
aI4
aI4
aI1
aI4
aI1
aI11
aI5
aI2
aI1
aI0
aI2
aI6
aI2
aI2
aI1
aI2
aI2
aI0
aI2
aI3
aI9
aI0
aI2
aI4
aI2
aI1
aI3
aI6
aI0
aI1
aI2
aI1
aI0
aI1
aI2
aI2
aI5
aI32
aI0
aI6
aI0
aI1
aI4
aI9
aI3
aI1
aI3
aI2
aI16
aI3
aI2
aI11
aI9
aI6
aI4
aI0
aI9
aI6
aI2
aI0
aI7
aI1
aI3
aI2
aI3
aI7
aI4
aI17
aI8
aI2
aI7
aI2
aI6
aI50
aI16
aI21
aI8
aI21
aI10
aI21
aI16
aI26
aI10
aI7
aI17
aI18
aI22
aI24
aI30
aI49
aI28
aI37
asS'PursueBehavior'
p10
(lp11
I6
aI3
aI18
aI1
aI4
aI44
aI6
aI23
aI5
aI2
aI0
aI14
aI55
aI16
aI34
aI20
aI72
aI33
aI49
aI46
aI58
aI19
aI45
aI45
aI21
aI15
aI19
aI28
aI53
aI53
aI24
aI11
aI20
aI44
aI20
aI36
aI31
aI25
aI34
aI18
aI11
aI19
aI24
aI68
aI15
aI28
aI15
aI11
aI28
aI19
aI43
aI39
aI11
aI9
aI27
aI34
aI14
aI34
aI46
aI59
aI59
aI27
aI22
aI22
aI19
aI46
aI32
aI6
aI10
aI23
aI47
aI44
aI38
aI0
aI1
aI1
aI2
aI2
aI2
aI2
aI7
aI13
aI18
aI31
aI20
aI12
aI15
aI37
aI21
aI29
aI29
aI17
aI39
aI5
aI16
aI23
aI76
aI13
aI7
aI8
aI0
aI0
aI0
aI0
aI0
aI0
aI0
aI0
aI0
aI0
aI0
aI0
aI0
aI0
aI0
asS'SeekBehavior'
p12
(lp13
I16
aI0
aI7
aI1
aI1
aI16
aI0
aI1
aI0
aI1
aI0
aI1
aI28
aI0
aI1
aI0
aI8
aI2
aI0
aI4
aI11
aI0
aI0
aI3
aI0
aI3
aI2
aI38
aI4
aI14
aI2
aI1
aI1
aI2
aI1
aI1
aI0
aI0
aI5
aI3
aI1
aI1
aI1
aI35
aI0
aI1
aI2
aI0
aI0
aI1
aI0
aI3
aI2
aI1
aI1
aI1
aI0
aI1
aI1
aI3
aI49
aI1
aI0
aI3
aI0
aI1
aI3
aI1
aI0
aI2
aI4
aI19
aI17
aI15
aI23
aI8
aI52
aI36
aI46
aI58
aI17
aI24
aI0
aI1
aI4
aI19
aI4
aI1
aI0
aI14
aI69
aI0
aI4
aI1
aI1
aI0
aI47
aI18
aI5
aI12
aI9
aI5
aI12
aI35
aI14
aI35
aI33
aI13
aI14
aI28
aI82
aI20
aI9
aI40
aI89
assI2
(dp14
S'FleeBehavior'
p15
(lp16
I5
aI16
aI38
aI33
aI42
aI29
aI0
aI2
aI4
aI21
aI22
aI50
aI54
aI0
aI1
aI1
aI38
aI1
aI1
aI6
aI43
aI16
aI44
aI45
aI24
aI18
aI23
aI64
aI62
aI18
aI0
aI1
aI0
aI2
aI0
aI2
aI1
aI1
aI1
aI0
aI0
aI0
aI1
aI19
aI1
aI2
aI0
aI0
aI2
aI0
aI0
aI0
aI0
aI0
aI0
aI1
aI0
aI1
aI2
aI3
aI31
aI0
aI0
aI3
aI1
aI3
aI20
aI0
aI0
aI2
aI3
aI27
aI35
aI15
aI32
aI18
aI55
aI41
aI44
aI42
aI29
aI37
aI16
aI22
aI2
aI22
aI1
aI3
aI1
aI3
aI40
aI1
aI1
aI0
aI0
aI2
aI11
aI7
aI28
aI5
aI29
aI14
aI33
aI51
aI38
aI45
aI37
aI30
aI31
aI50
aI105
aI50
aI55
aI67
aI91
asS'PursueBehavior'
p17
(lp18
I18
aI2
aI7
aI3
aI2
aI22
aI20
aI29
aI26
aI8
aI6
aI16
aI90
aI2
aI36
aI19
aI41
aI34
aI49
aI43
aI28
aI1
aI5
aI5
aI0
aI0
aI0
aI1
aI2
aI2
aI0
aI1
aI1
aI1
aI1
aI1
aI0
aI2
aI1
aI3
aI1
aI0
aI0
aI9
aI1
aI0
aI0
aI0
aI4
aI0
aI2
aI0
aI1
aI0
aI0
aI2
aI0
aI1
aI1
aI4
aI45
aI2
aI0
aI1
aI0
aI2
aI2
aI0
aI0
aI1
aI1
aI2
aI15
aI0
aI2
aI0
aI3
aI1
aI1
aI10
aI1
aI1
aI0
aI2
aI1
aI1
aI1
aI1
aI1
aI1
aI3
aI0
aI0
aI1
aI0
aI0
aI35
aI5
aI4
aI15
aI0
aI0
aI0
aI0
aI0
aI0
aI0
aI0
aI0
aI0
aI0
aI0
aI0
aI0
aI35
asS'SeekBehavior'
p19
(lp20
I4
aI2
aI14
aI1
aI10
aI18
aI0
aI1
aI0
aI0
aI2
aI1
aI36
aI14
aI3
aI1
aI3
aI1
aI1
aI5
aI2
aI2
aI0
aI1
aI1
aI1
aI1
aI2
aI4
aI52
aI27
aI11
aI20
aI45
aI26
aI35
aI32
aI23
aI39
aI20
aI11
aI22
aI26
aI84
aI13
aI28
aI20
aI13
aI23
aI23
aI46
aI42
aI13
aI12
aI29
aI32
aI15
aI35
aI46
aI60
aI64
aI26
aI27
aI21
aI19
aI46
aI22
aI10
aI11
aI25
aI49
aI50
aI8
aI2
aI1
aI0
aI1
aI0
aI3
aI16
aI0
aI0
aI2
aI14
aI22
aI11
aI19
aI37
aI26
aI43
aI72
aI24
aI44
aI12
aI19
aI27
aI127
aI35
aI1
aI8
aI1
aI0
aI0
aI0
aI2
aI0
aI3
aI0
aI0
aI0
aI1
aI0
aI3
aI0
aI0
assI3
(dp21
S'FleeBehavior'
p22
(lp23
I12
aI0
aI16
aI14
aI38
aI29
aI18
aI32
aI29
aI28
aI29
aI62
aI91
aI0
aI2
aI0
aI6
aI2
aI1
aI2
aI10
aI18
aI41
aI46
aI23
aI17
aI22
aI63
aI62
aI67
aI27
aI11
aI20
aI44
aI21
aI36
aI32
aI25
aI39
aI21
aI12
aI22
aI26
aI77
aI14
aI30
aI19
aI13
aI27
aI21
aI47
aI42
aI14
aI12
aI25
aI35
aI13
aI34
aI47
aI61
aI103
aI20
aI27
aI25
aI19
aI47
aI42
aI10
aI11
aI26
aI49
aI55
aI54
aI17
aI35
aI16
aI35
aI39
aI40
aI56
aI27
aI36
aI16
aI37
aI24
aI34
aI18
aI38
aI25
aI44
aI73
aI20
aI19
aI12
aI4
aI21
aI93
aI36
aI24
aI20
aI16
aI2
aI4
aI14
aI2
aI13
aI18
aI14
aI11
aI12
aI23
aI16
aI29
aI33
aI65
asS'PursueBehavior'
p24
(lp25
I4
aI2
aI22
aI2
aI0
aI36
aI2
aI0
aI0
aI1
aI0
aI2
aI58
aI0
aI1
aI0
aI38
aI2
aI18
aI43
aI47
aI1
aI4
aI2
aI0
aI0
aI1
aI3
aI3
aI2
aI0
aI2
aI1
aI3
aI3
aI0
aI0
aI1
aI0
aI1
aI0
aI0
aI0
aI32
aI0
aI0
aI0
aI0
aI1
aI2
aI0
aI0
aI0
aI0
aI3
aI0
aI1
aI1
aI1
aI3
aI27
aI7
aI0
aI0
aI1
aI1
aI0
aI0
aI0
aI1
aI0
aI23
aI3
aI0
aI0
aI0
aI23
aI2
aI3
aI11
aI1
aI1
aI1
aI1
aI0
aI0
aI1
aI1
aI1
aI1
aI36
aI0
aI2
aI1
aI10
aI6
aI48
aI0
aI1
aI0
aI0
aI0
aI0
aI0
aI0
aI0
aI0
aI0
aI0
aI0
aI40
aI0
aI0
aI0
aI3
asS'SeekBehavior'
p26
(lp27
I11
aI17
aI21
aI21
aI15
aI4
aI0
aI0
aI1
aI0
aI1
aI3
aI31
aI16
aI37
aI21
aI38
aI32
aI32
aI9
aI16
aI0
aI4
aI3
aI2
aI2
aI1
aI1
aI3
aI3
aI0
aI0
aI0
aI1
aI2
aI2
aI1
aI0
aI2
aI1
aI0
aI0
aI1
aI3
aI0
aI0
aI1
aI0
aI1
aI0
aI1
aI0
aI0
aI0
aI1
aI0
aI1
aI1
aI1
aI2
aI9
aI1
aI0
aI0
aI0
aI3
aI1
aI0
aI0
aI1
aI3
aI1
aI1
aI0
aI0
aI2
aI1
aI1
aI5
aI1
aI2
aI1
aI0
aI0
aI1
aI0
aI2
aI1
aI2
aI1
aI6
aI5
aI24
aI0
aI5
aI2
aI32
aI11
aI8
aI7
aI14
aI12
aI29
aI36
aI38
aI32
aI22
aI16
aI20
aI38
aI43
aI34
aI29
aI34
aI58
assI4
(dp28
S'FleeBehavior'
p29
(lp30
I6
aI1
aI13
aI18
aI44
aI23
aI1
aI2
aI1
aI0
aI2
aI1
aI35
aI1
aI0
aI0
aI3
aI2
aI2
aI2
aI6
aI17
aI42
aI46
aI22
aI18
aI23
aI23
aI52
aI19
aI25
aI11
aI19
aI40
aI25
aI37
aI30
aI24
aI36
aI21
aI10
aI20
aI24
aI94
aI13
aI26
aI18
aI11
aI25
aI22
aI37
aI33
aI13
aI5
aI12
aI29
aI0
aI3
aI0
aI2
aI3
aI16
aI8
aI0
aI1
aI1
aI0
aI0
aI0
aI0
aI1
aI4
aI1
aI2
aI1
aI0
aI0
aI4
aI2
aI5
aI1
aI1
aI0
aI4
aI0
aI2
aI0
aI1
aI0
aI0
aI1
aI1
aI0
aI0
aI1
aI1
aI6
aI3
aI1
aI3
aI0
aI0
aI0
aI0
aI0
aI0
aI0
aI0
aI0
aI0
aI0
aI0
aI0
aI0
aI0
asS'PursueBehavior'
p31
(lp32
I5
aI1
aI10
aI6
aI5
aI25
aI0
aI5
aI1
aI0
aI1
aI1
aI46
aI0
aI2
aI0
aI3
aI1
aI1
aI6
aI5
aI0
aI0
aI3
aI2
aI0
aI0
aI2
aI2
aI3
aI0
aI1
aI1
aI1
aI1
aI0
aI1
aI0
aI1
aI0
aI0
aI1
aI0
aI3
aI0
aI2
aI0
aI2
aI0
aI0
aI3
aI1
aI0
aI1
aI1
aI2
aI9
aI9
aI31
aI32
aI69
aI5
aI7
aI1
aI0
aI2
aI2
aI0
aI0
aI2
aI1
aI4
aI1
aI1
aI0
aI2
aI4
aI1
aI3
aI6
aI2
aI0
aI0
aI2
aI1
aI0
aI0
aI2
aI0
aI2
aI3
aI0
aI4
aI0
aI0
aI0
aI18
aI11
aI5
aI17
aI18
aI11
aI21
aI38
aI28
aI22
aI23
aI23
aI29
aI36
aI47
aI28
aI32
aI58
aI63
asS'SeekBehavior'
p33
(lp34
I16
aI17
aI36
aI12
aI4
aI21
aI19
aI25
aI28
aI29
aI27
aI65
aI99
aI14
aI37
aI20
aI75
aI32
aI48
aI46
aI62
aI2
aI7
aI2
aI0
aI0
aI1
aI42
aI14
aI49
aI2
aI1
aI1
aI7
aI0
aI1
aI1
aI2
aI4
aI2
aI1
aI1
aI3
aI14
aI1
aI2
aI2
aI0
aI4
aI1
aI8
aI8
aI1
aI6
aI16
aI4
aI6
aI24
aI18
aI32
aI67
aI7
aI12
aI24
aI18
aI48
aI41
aI10
aI10
aI25
aI50
aI71
aI56
aI14
aI34
aI16
aI55
aI37
aI43
aI57
aI27
aI37
aI17
aI32
aI24
aI32
aI20
aI37
aI28
aI44
aI111
aI24
aI41
aI13
aI18
aI28
aI148
aI33
aI27
aI7
aI11
aI3
aI12
aI12
aI11
aI23
aI17
aI7
aI2
aI14
aI59
aI21
aI26
aI9
aI62
asss.