(dp0
S'learn_scores'
p1
(lp2
F-84.0
aF-451.0
aF-430.0
aF-429.0
aF-426.0
aF74.0
aF-449.0
aF-406.0
aF-476.0
aF-285.0
aF-414.0
aF-470.0
aF-387.0
aF-447.0
aF-386.0
aF-339.0
aF-368.0
aF-320.0
aF-297.0
aF-376.0
aF403.0
aF-328.0
aF-422.0
aF-454.0
aF-190.0
aF-320.0
aF-368.0
aF-366.0
aF-379.0
aF-401.0
aF-395.0
aF-426.0
aF-420.0
aF-456.0
aF-354.0
aF143.0
aF-472.0
aF92.0
aF-372.0
aF-377.0
aF-407.0
aF-375.0
aF-359.0
aF-395.0
aF-410.0
aF-419.0
aF-470.0
aF-439.0
aF-311.0
aF-423.0
aF-463.0
aF-407.0
aF-432.0
aF-476.0
aF-473.0
aF-412.0
aF-435.0
aF-436.0
aF-434.0
aF-372.0
aF-310.0
aF-400.0
aF-311.0
aF-194.0
aF-68.0
aF-354.0
aF-456.0
aF-424.0
aF-373.0
aF-393.0
aF-400.0
aF-376.0
aF-316.0
aF-343.0
aF-415.0
aF-375.0
aF-309.0
aF-339.0
aF-405.0
aF-422.0
aF-413.0
aF-432.0
aF-318.0
aF-404.0
aF-288.0
aF-372.0
aF-369.0
aF-257.0
aF-409.0
aF-394.0
aF-402.0
aF-387.0
aF-451.0
aF-394.0
aF-351.0
aF-396.0
aF-333.0
aF-425.0
aF23.0
aF-317.0
asS'test_scores'
p3
(lp4
F-255.0
aF-8.0
aF89.0
aF58.0
aF-437.0
aF-440.0
aF-416.0
aF-410.0
aF-273.0
aF-424.0
aF-438.0
aF-359.0
aF-290.0
aF-286.0
aF-407.0
asS'behavior_count'
p5
(dp6
I1
(dp7
S'FleeBehavior'
p8
(lp9
I31
aI1
aI1
aI1
aI0
aI13
aI18
aI25
aI16
aI61
aI22
aI19
aI26
aI17
aI31
aI44
aI25
aI36
aI62
aI24
aI115
aI1
aI4
aI1
aI1
aI5
aI2
aI1
aI0
aI0
aI2
aI0
aI0
aI2
aI10
aI83
aI1
aI26
aI1
aI1
aI0
aI2
aI2
aI2
aI1
aI0
aI0
aI1
aI4
aI0
aI0
aI2
aI0
aI0
aI0
aI1
aI2
aI0
aI0
aI0
aI3
aI2
aI3
aI10
aI18
aI1
aI0
aI0
aI0
aI0
aI4
aI2
aI3
aI3
aI0
aI7
aI1
aI1
aI0
aI1
aI1
aI5
aI0
aI1
aI4
aI0
aI1
aI3
aI3
aI4
aI10
aI8
aI1
aI0
aI1
aI0
aI3
aI3
aI10
aI35
aI0
aI29
aI28
aI0
aI0
aI0
aI0
aI0
aI0
aI0
aI0
aI0
aI0
aI0
aI0
asS'PursueBehavior'
p10
(lp11
I22
aI0
aI0
aI0
aI2
aI1
aI1
aI1
aI0
aI2
aI1
aI2
aI1
aI0
aI2
aI2
aI2
aI2
aI4
aI2
aI73
aI58
aI29
aI12
aI95
aI37
aI20
aI24
aI36
aI22
aI32
aI14
aI20
aI15
aI34
aI26
aI12
aI134
aI35
aI10
aI18
aI53
aI3
aI18
aI2
aI2
aI0
aI4
aI10
aI1
aI0
aI5
aI3
aI2
aI2
aI3
aI0
aI1
aI1
aI4
aI1
aI5
aI25
aI17
aI80
aI40
aI15
aI14
aI23
aI41
aI54
aI22
aI23
aI39
aI20
aI33
aI39
aI56
aI34
aI29
aI30
aI46
aI48
aI21
aI36
aI11
aI13
aI46
aI8
aI2
aI0
aI2
aI3
aI2
aI4
aI4
aI20
aI11
aI11
aI24
aI86
aI89
aI111
aI62
aI17
aI10
aI27
aI21
aI54
aI25
aI29
aI40
aI60
aI47
aI37
asS'SeekBehavior'
p12
(lp13
I12
aI20
aI20
aI28
aI14
aI62
aI0
aI1
aI0
aI2
aI1
aI0
aI0
aI1
aI4
aI3
aI2
aI3
aI2
aI0
aI10
aI0
aI0
aI2
aI14
aI19
aI17
aI51
aI3
aI0
aI2
aI2
aI1
aI0
aI1
aI8
aI0
aI29
aI6
aI26
aI0
aI10
aI44
aI46
aI17
aI28
aI31
aI55
aI58
aI12
aI14
aI20
aI29
aI25
aI11
aI8
aI14
aI16
aI23
aI29
aI57
aI24
aI53
aI67
aI71
aI4
aI1
aI1
aI1
aI2
aI3
aI2
aI0
aI2
aI6
aI5
aI0
aI2
aI2
aI2
aI2
aI1
aI1
aI3
aI19
aI22
aI16
aI28
aI19
aI29
aI32
aI18
aI18
aI42
aI37
aI13
aI41
aI21
aI57
aI8
aI0
aI11
aI12
aI40
aI0
aI0
aI0
aI0
aI0
aI0
aI0
aI0
aI0
aI0
aI0
assI2
(dp14
S'FleeBehavior'
p15
(lp16
I22
aI18
aI20
aI27
aI15
aI67
aI0
aI2
aI0
aI3
aI1
aI1
aI1
aI0
aI2
aI1
aI1
aI13
aI30
aI0
aI11
aI4
aI0
aI0
aI7
aI45
aI1
aI11
aI3
aI2
aI2
aI0
aI1
aI0
aI1
aI8
aI1
aI46
aI2
aI1
aI1
aI3
aI2
aI10
aI0
aI0
aI2
aI0
aI10
aI0
aI0
aI3
aI2
aI0
aI0
aI0
aI1
aI0
aI0
aI0
aI0
aI1
aI3
aI4
aI17
aI2
aI0
aI1
aI1
aI0
aI1
aI0
aI0
aI1
aI1
aI2
aI3
aI4
aI0
aI0
aI1
aI2
aI0
aI0
aI2
aI1
aI2
aI4
aI0
aI0
aI1
aI0
aI0
aI2
aI1
aI0
aI1
aI0
aI5
aI7
aI0
aI36
aI12
aI34
aI0
aI0
aI0
aI0
aI0
aI0
aI0
aI0
aI0
aI0
aI0
asS'PursueBehavior'
p17
(lp18
I20
aI1
aI0
aI1
aI0
aI8
aI18
aI24
aI16
aI59
aI22
aI19
aI24
aI17
aI35
aI47
aI27
aI26
aI27
aI1
aI69
aI4
aI0
aI1
aI1
aI1
aI3
aI1
aI0
aI0
aI0
aI0
aI0
aI0
aI3
aI34
aI1
aI7
aI1
aI0
aI0
aI0
aI0
aI1
aI0
aI1
aI2
aI4
aI6
aI0
aI1
aI1
aI1
aI1
aI0
aI0
aI0
aI2
aI1
aI1
aI3
aI0
aI2
aI1
aI31
aI2
aI0
aI0
aI2
aI1
aI0
aI0
aI2
aI3
aI1
aI1
aI2
aI1
aI0
aI0
aI1
aI1
aI5
aI1
aI2
aI1
aI0
aI2
aI6
aI32
aI29
aI22
aI19
aI39
aI31
aI16
aI55
aI27
aI70
aI28
aI79
aI89
aI134
aI65
aI17
aI10
aI27
aI20
aI50
aI24
aI28
aI39
aI57
aI39
aI37
asS'SeekBehavior'
p19
(lp20
I23
aI2
aI0
aI1
aI1
aI1
aI1
aI0
aI0
aI3
aI1
aI0
aI2
aI1
aI0
aI1
aI1
aI1
aI11
aI25
aI117
aI51
aI32
aI14
aI102
aI15
aI35
aI64
aI36
aI20
aI34
aI16
aI20
aI16
aI41
aI75
aI11
aI136
aI39
aI36
aI16
aI62
aI47
aI55
aI20
aI29
aI27
aI56
aI56
aI13
aI13
aI23
aI29
aI26
aI13
aI12
aI15
aI15
aI23
aI32
aI58
aI30
aI76
aI89
aI121
aI41
aI16
aI14
aI21
aI42
aI60
aI26
aI24
aI39
aI24
aI42
aI35
aI54
aI36
aI32
aI31
aI49
aI44
aI24
aI55
aI31
aI28
aI71
aI24
aI3
aI12
aI6
aI3
aI3
aI10
aI1
aI8
aI8
aI3
aI32
aI7
aI4
aI5
aI3
aI0
aI0
aI0
aI0
aI4
aI0
aI1
aI0
aI3
aI7
aI0
assI3
(dp21
S'FleeBehavior'
p22
(lp23
I25
aI18
aI1
aI9
aI16
aI63
aI1
aI0
aI1
aI2
aI0
aI0
aI1
aI0
aI1
aI2
aI0
aI2
aI3
aI1
aI78
aI0
aI0
aI0
aI2
aI0
aI3
aI1
aI1
aI0
aI0
aI2
aI0
aI1
aI0
aI36
aI0
aI26
aI0
aI2
aI0
aI0
aI0
aI6
aI0
aI0
aI2
aI1
aI6
aI0
aI1
aI1
aI3
aI3
aI1
aI1
aI1
aI0
aI0
aI2
aI2
aI1
aI4
aI3
aI25
aI0
aI0
aI1
aI2
aI4
aI2
aI0
aI0
aI1
aI0
aI1
aI1
aI2
aI2
aI0
aI1
aI1
aI2
aI1
aI3
aI1
aI1
aI0
aI1
aI1
aI2
aI1
aI1
aI0
aI2
aI0
aI2
aI2
aI23
aI1
aI0
aI39
aI39
aI14
aI0
aI0
aI0
aI0
aI0
aI0
aI0
aI0
aI0
aI0
aI0
asS'PursueBehavior'
p24
(lp25
I20
aI3
aI18
aI20
aI0
aI7
aI17
aI26
aI14
aI52
aI1
aI2
aI0
aI0
aI3
aI12
aI3
aI6
aI14
aI3
aI28
aI11
aI3
aI0
aI25
aI35
aI20
aI33
aI3
aI0
aI2
aI0
aI3
aI5
aI30
aI52
aI6
aI51
aI8
aI6
aI12
aI39
aI8
aI22
aI6
aI2
aI0
aI2
aI3
aI0
aI0
aI1
aI0
aI1
aI0
aI2
aI0
aI1
aI1
aI2
aI1
aI2
aI3
aI3
aI63
aI19
aI11
aI6
aI5
aI17
aI27
aI17
aI19
aI36
aI8
aI6
aI19
aI0
aI2
aI2
aI6
aI9
aI4
aI12
aI31
aI14
aI10
aI32
aI18
aI17
aI16
aI13
aI6
aI23
aI19
aI0
aI25
aI13
aI32
aI35
aI19
aI37
aI45
aI63
aI2
aI1
aI12
aI13
aI5
aI7
aI15
aI20
aI20
aI19
aI10
asS'SeekBehavior'
p26
(lp27
I20
aI0
aI1
aI0
aI0
aI6
aI1
aI0
aI1
aI11
aI23
aI18
aI26
aI17
aI33
aI35
aI25
aI32
aI51
aI22
aI91
aI48
aI29
aI15
aI83
aI25
aI16
aI42
aI35
aI22
aI34
aI14
aI17
aI10
aI14
aI29
aI7
aI112
aI34
aI29
aI5
aI26
aI41
aI38
aI14
aI28
aI29
aI56
aI63
aI13
aI13
aI25
aI29
aI23
aI12
aI9
aI15
aI15
aI23
aI29
aI57
aI28
aI74
aI88
aI81
aI26
aI5
aI8
aI16
aI22
aI31
aI9
aI7
aI6
aI17
aI38
aI20
aI57
aI32
aI30
aI26
aI42
aI43
aI11
aI24
aI18
aI19
aI45
aI11
aI17
aI24
aI14
aI15
aI21
aI20
aI17
aI37
aI20
aI23
aI31
aI67
aI53
aI67
aI25
aI15
aI9
aI15
aI7
aI48
aI17
aI13
aI19
aI40
aI27
aI27
assI4
(dp28
S'FleeBehavior'
p29
(lp30
I28
aI18
aI18
aI29
aI16
aI73
aI19
aI23
aI14
aI60
aI24
aI19
aI22
aI16
aI32
aI8
aI25
aI38
aI51
aI14
aI114
aI3
aI2
aI0
aI3
aI2
aI2
aI8
aI37
aI17
aI18
aI11
aI0
aI0
aI2
aI35
aI1
aI41
aI1
aI2
aI0
aI5
aI0
aI5
aI1
aI1
aI2
aI2
aI2
aI0
aI0
aI1
aI0
aI0
aI1
aI0
aI0
aI2
aI0
aI0
aI4
aI0
aI1
aI4
aI41
aI1
aI1
aI0
aI0
aI2
aI1
aI1
aI0
aI0
aI0
aI0
aI2
aI2
aI2
aI1
aI0
aI2
aI3
aI1
aI1
aI1
aI0
aI1
aI0
aI0
aI2
aI1
aI0
aI0
aI1
aI0
aI2
aI2
aI20
aI3
aI0
aI39
aI40
aI40
aI0
aI0
aI0
aI0
aI0
aI0
aI0
aI0
aI0
aI0
aI0
asS'PursueBehavior'
p31
(lp32
I13
aI3
aI0
aI0
aI0
aI2
aI0
aI1
aI2
aI3
aI0
aI0
aI2
aI1
aI2
aI39
aI3
aI1
aI11
aI11
aI35
aI36
aI3
aI0
aI14
aI30
aI29
aI18
aI1
aI1
aI4
aI2
aI12
aI2
aI1
aI16
aI1
aI27
aI0
aI2
aI2
aI1
aI1
aI3
aI1
aI0
aI3
aI0
aI2
aI1
aI0
aI3
aI1
aI0
aI0
aI1
aI0
aI1
aI3
aI1
aI3
aI1
aI2
aI5
aI15
aI2
aI0
aI0
aI0
aI0
aI1
aI2
aI3
aI3
aI0
aI2
aI2
aI3
aI2
aI1
aI1
aI5
aI9
aI3
aI7
aI0
aI4
aI53
aI1
aI1
aI1
aI1
aI0
aI2
aI4
aI0
aI1
aI0
aI2
aI3
aI0
aI0
aI0
aI0
aI0
aI0
aI0
aI0
aI0
aI0
aI0
aI0
aI0
aI0
aI0
asS'SeekBehavior'
p33
(lp34
I23
aI0
aI2
aI0
aI0
aI1
aI0
aI2
aI0
aI2
aI0
aI1
aI3
aI0
aI3
aI2
aI0
aI1
aI6
aI1
aI48
aI20
aI27
aI15
aI93
aI28
aI7
aI50
aI1
aI4
aI13
aI3
aI8
aI14
aI41
aI66
aI11
aI121
aI41
aI33
aI15
aI59
aI48
aI57
aI18
aI28
aI26
aI57
aI67
aI12
aI14
aI23
aI31
aI26
aI12
aI11
aI15
aI13
aI21
aI31
aI53
aI30
aI78
aI85
aI113
aI42
aI15
aI15
aI23
aI41
aI58
aI23
aI23
aI40
aI25
aI43
aI36
aI54
aI32
aI30
aI32
aI45
aI36
aI20
aI50
aI32
aI25
aI23
aI28
aI33
aI39
aI25
aI21
aI42
aI36
aI16
aI60
aI33
aI55
aI61
aI86
aI89
aI111
aI62
aI17
aI10
aI27
aI20
aI53
aI24
aI28
aI39
aI60
aI46
aI37
asss.