(dp0
S'learn_scores'
p1
(lp2
F-455.0
aF-295.0
aF-448.0
aF-349.0
aF-323.0
aF-301.0
aF-414.0
aF-178.0
aF-359.0
aF-426.0
aF-380.0
aF-431.0
aF-398.0
aF-442.0
aF-426.0
aF-472.0
aF503.0
aF-400.0
aF-384.0
aF-320.0
aF-399.0
aF-369.0
aF-435.0
aF-367.0
aF-384.0
aF-127.0
aF-445.0
aF-453.0
aF-328.0
aF-409.0
aF-482.0
aF-321.0
aF-389.0
aF-465.0
aF-450.0
aF-233.0
aF-359.0
aF-410.0
aF-278.0
aF-344.0
aF-370.0
aF-37.0
aF-272.0
aF-369.0
aF-409.0
aF-381.0
aF-262.0
aF-481.0
aF-392.0
aF-401.0
aF-445.0
aF-277.0
aF-289.0
aF-115.0
aF-433.0
aF-135.0
aF-387.0
aF-349.0
aF-442.0
aF-425.0
aF-311.0
aF-408.0
aF-321.0
aF-375.0
aF-412.0
aF-430.0
aF177.0
aF-395.0
aF-441.0
aF-451.0
aF-398.0
aF-352.0
aF-372.0
aF-264.0
aF-455.0
aF-372.0
aF-389.0
aF-416.0
aF-401.0
aF-301.0
aF-381.0
aF-397.0
aF-312.0
aF-385.0
aF-403.0
aF327.0
aF-417.0
aF-374.0
aF-460.0
aF-211.0
aF-411.0
aF-427.0
aF-339.0
aF-362.0
aF-158.0
aF-385.0
aF-435.0
aF-97.0
aF-408.0
aF-341.0
asS'test_scores'
p3
(lp4
F-349.0
aF-312.0
aF-372.0
aF-433.0
aF-456.0
aF-223.0
aF-350.0
aF-419.0
aF-428.0
aF-419.0
aF-426.0
aF-380.0
aF-370.0
aF-449.0
aF-74.0
asS'behavior_count'
p5
(dp6
I1
(dp7
S'FleeBehavior'
p8
(lp9
I8
aI1
aI2
aI12
aI2
aI11
aI9
aI58
aI0
aI1
aI0
aI0
aI1
aI1
aI1
aI0
aI40
aI30
aI42
aI35
aI42
aI27
aI16
aI17
aI33
aI116
aI14
aI12
aI38
aI27
aI11
aI70
aI37
aI13
aI10
aI94
aI27
aI28
aI46
aI9
aI22
aI30
aI37
aI22
aI6
aI0
aI1
aI0
aI1
aI1
aI1
aI7
aI23
aI21
aI2
aI9
aI11
aI6
aI10
aI6
aI18
aI5
aI0
aI6
aI1
aI0
aI14
aI1
aI0
aI1
aI0
aI0
aI1
aI1
aI1
aI2
aI2
aI3
aI2
aI0
aI1
aI2
aI1
aI0
aI1
aI6
aI1
aI2
aI2
aI4
aI0
aI0
aI1
aI6
aI0
aI13
aI8
aI13
aI7
aI22
aI0
aI0
aI0
aI0
aI0
aI0
aI0
aI0
aI0
aI0
aI0
aI0
aI0
aI0
aI0
asS'PursueBehavior'
p10
(lp11
I5
aI14
aI1
aI9
aI39
aI37
aI6
aI13
aI29
aI19
aI29
aI12
aI27
aI22
aI23
aI21
aI138
aI0
aI0
aI0
aI5
aI2
aI0
aI0
aI1
aI10
aI0
aI0
aI1
aI0
aI1
aI2
aI1
aI1
aI1
aI36
aI2
aI1
aI51
aI6
aI3
aI28
aI5
aI1
aI0
aI2
aI4
aI1
aI2
aI0
aI1
aI0
aI2
aI5
aI19
aI63
aI12
aI4
aI0
aI0
aI2
aI0
aI2
aI1
aI0
aI1
aI4
aI0
aI2
aI0
aI1
aI0
aI0
aI6
aI0
aI1
aI1
aI2
aI0
aI2
aI1
aI2
aI3
aI2
aI0
aI14
aI2
aI1
aI0
aI3
aI2
aI13
aI0
aI11
aI44
aI22
aI2
aI9
aI14
aI13
aI41
aI51
aI15
aI14
aI27
aI78
aI34
aI15
aI9
aI25
aI25
aI19
aI21
aI17
aI120
asS'SeekBehavior'
p12
(lp13
I3
aI41
aI25
aI38
aI3
aI4
aI10
aI28
aI1
aI6
aI1
aI0
aI0
aI0
aI2
aI1
aI30
aI1
aI3
aI5
aI2
aI1
aI0
aI1
aI1
aI11
aI2
aI2
aI0
aI2
aI1
aI0
aI1
aI1
aI0
aI14
aI1
aI2
aI22
aI19
aI6
aI10
aI11
aI7
aI14
aI20
aI67
aI21
aI19
aI20
aI24
aI91
aI65
aI110
aI3
aI34
aI15
aI30
aI13
aI10
aI31
aI24
aI30
aI39
aI22
aI20
aI116
aI24
aI10
aI21
aI18
aI33
aI32
aI48
aI14
aI40
aI27
aI32
aI40
aI50
aI40
aI34
aI49
aI24
aI33
aI123
aI14
aI32
aI19
aI95
aI29
aI15
aI49
aI45
aI35
aI10
aI15
aI56
aI8
aI17
aI8
aI41
aI8
aI10
aI0
aI25
aI6
aI15
aI9
aI4
aI11
aI11
aI9
aI3
aI45
assI2
(dp14
S'FleeBehavior'
p15
(lp16
I4
aI18
aI0
aI6
aI4
aI39
aI21
aI58
aI27
aI25
aI24
aI7
aI27
aI20
aI22
aI21
aI86
aI4
aI0
aI3
aI42
aI27
aI13
aI15
aI29
aI73
aI0
aI1
aI2
aI1
aI0
aI1
aI2
aI0
aI1
aI1
aI2
aI1
aI2
aI0
aI2
aI3
aI3
aI0
aI0
aI0
aI2
aI0
aI2
aI0
aI1
aI2
aI3
aI23
aI0
aI3
aI1
aI3
aI0
aI1
aI2
aI1
aI3
aI3
aI0
aI0
aI14
aI1
aI1
aI1
aI0
aI1
aI1
aI2
aI0
aI0
aI1
aI3
aI1
aI0
aI1
aI0
aI0
aI2
aI0
aI17
aI1
aI0
aI0
aI4
aI1
aI1
aI0
aI4
aI5
aI2
aI0
aI11
aI0
aI4
aI0
aI0
aI0
aI0
aI0
aI39
aI0
aI0
aI0
aI0
aI0
aI0
aI0
aI0
aI0
asS'PursueBehavior'
p17
(lp18
I10
aI37
aI21
aI15
aI6
aI9
aI1
aI19
aI3
aI0
aI2
aI2
aI1
aI2
aI3
aI0
aI100
aI17
aI3
aI4
aI1
aI1
aI3
aI2
aI4
aI46
aI16
aI10
aI37
aI28
aI11
aI68
aI34
aI14
aI10
aI138
aI27
aI27
aI110
aI34
aI27
aI56
aI46
aI27
aI19
aI21
aI70
aI21
aI20
aI19
aI23
aI95
aI81
aI89
aI24
aI87
aI34
aI35
aI9
aI1
aI8
aI25
aI27
aI39
aI10
aI21
aI90
aI14
aI0
aI3
aI1
aI1
aI4
aI32
aI3
aI22
aI25
aI31
aI40
aI48
aI29
aI25
aI49
aI23
aI33
aI99
aI16
aI33
aI19
aI89
aI9
aI2
aI11
aI25
aI21
aI34
aI23
aI38
aI9
aI18
aI6
aI18
aI5
aI6
aI8
aI6
aI16
aI9
aI2
aI8
aI2
aI11
aI4
aI4
aI43
asS'SeekBehavior'
p19
(lp20
I1
aI1
aI7
aI38
aI34
aI4
aI3
aI21
aI0
aI1
aI4
aI2
aI0
aI1
aI1
aI1
aI22
aI10
aI42
aI33
aI6
aI1
aI0
aI0
aI2
aI18
aI0
aI2
aI0
aI0
aI1
aI3
aI3
aI1
aI0
aI4
aI1
aI3
aI6
aI0
aI2
aI9
aI3
aI2
aI0
aI1
aI0
aI1
aI0
aI2
aI1
aI1
aI6
aI24
aI0
aI16
aI2
aI2
aI14
aI14
aI41
aI3
aI1
aI4
aI13
aI0
aI30
aI10
aI11
aI18
aI18
aI31
aI28
aI20
aI12
aI21
aI3
aI2
aI1
aI3
aI11
aI13
aI4
aI0
aI1
aI27
aI0
aI2
aI2
aI9
aI21
aI25
aI39
aI33
aI52
aI9
aI2
aI28
aI20
aI30
aI43
aI74
aI18
aI18
aI19
aI58
aI24
aI21
aI16
aI21
aI34
aI19
aI26
aI16
aI121
assI3
(dp21
S'FleeBehavior'
p22
(lp23
I8
aI17
aI0
aI11
aI11
aI43
aI1
aI17
aI6
aI23
aI29
aI10
aI27
aI22
aI24
aI22
aI127
aI9
aI41
aI39
aI48
aI28
aI14
aI14
aI32
aI122
aI15
aI10
aI35
aI27
aI11
aI68
aI35
aI13
aI11
aI100
aI26
aI17
aI19
aI31
aI6
aI24
aI46
aI7
aI15
aI20
aI63
aI19
aI21
aI19
aI25
aI91
aI73
aI20
aI2
aI4
aI1
aI2
aI0
aI0
aI0
aI1
aI1
aI1
aI1
aI1
aI4
aI0
aI2
aI1
aI0
aI1
aI2
aI1
aI2
aI1
aI2
aI0
aI3
aI3
aI6
aI28
aI44
aI23
aI7
aI77
aI14
aI8
aI0
aI20
aI25
aI25
aI45
aI57
aI30
aI19
aI2
aI3
aI2
aI2
aI0
aI0
aI0
aI0
aI0
aI0
aI0
aI0
aI0
aI0
aI0
aI0
aI0
aI0
aI0
asS'PursueBehavior'
p24
(lp25
I6
aI39
aI27
aI45
aI0
aI3
aI23
aI65
aI22
aI1
aI0
aI0
aI0
aI1
aI1
aI0
aI47
aI18
aI2
aI1
aI1
aI1
aI0
aI1
aI2
aI11
aI1
aI1
aI2
aI2
aI1
aI2
aI1
aI2
aI0
aI38
aI3
aI13
aI97
aI2
aI24
aI33
aI3
aI1
aI3
aI2
aI6
aI2
aI0
aI1
aI0
aI4
aI4
aI64
aI22
aI62
aI34
aI35
aI20
aI15
aI50
aI28
aI30
aI43
aI21
aI18
aI121
aI24
aI10
aI19
aI18
aI29
aI30
aI50
aI13
aI40
aI27
aI36
aI36
aI48
aI34
aI9
aI6
aI1
aI25
aI54
aI3
aI27
aI19
aI80
aI6
aI3
aI2
aI5
aI45
aI26
aI23
aI65
aI26
aI49
aI49
aI92
aI23
aI23
aI26
aI103
aI40
aI30
aI18
aI29
aI36
aI30
aI30
aI20
aI164
asS'SeekBehavior'
p26
(lp27
I1
aI0
aI1
aI3
aI33
aI6
aI1
aI16
aI2
aI2
aI1
aI1
aI1
aI0
aI1
aI0
aI34
aI4
aI2
aI0
aI0
aI0
aI1
aI2
aI1
aI4
aI0
aI2
aI1
aI0
aI0
aI2
aI3
aI0
aI0
aI5
aI1
aI1
aI2
aI1
aI0
aI11
aI3
aI21
aI1
aI0
aI3
aI0
aI1
aI1
aI0
aI2
aI13
aI52
aI0
aI40
aI2
aI3
aI3
aI1
aI1
aI0
aI0
aI2
aI1
aI1
aI9
aI1
aI0
aI1
aI1
aI3
aI1
aI3
aI0
aI1
aI0
aI0
aI2
aI0
aI1
aI1
aI2
aI1
aI2
aI12
aI0
aI0
aI1
aI2
aI0
aI0
aI3
aI0
aI3
aI0
aI0
aI9
aI1
aI1
aI0
aI0
aI0
aI0
aI0
aI0
aI0
aI0
aI0
aI0
aI0
aI0
aI0
aI0
aI0
assI4
(dp28
S'FleeBehavior'
p29
(lp30
I1
aI2
aI0
aI9
aI5
aI36
aI1
aI31
aI30
aI23
aI29
aI10
aI27
aI22
aI23
aI20
aI126
aI10
aI42
aI36
aI45
aI26
aI14
aI17
aI32
aI94
aI14
aI12
aI35
aI29
aI10
aI71
aI38
aI14
aI10
aI103
aI27
aI29
aI71
aI20
aI27
aI26
aI48
aI26
aI19
aI21
aI67
aI20
aI15
aI8
aI0
aI32
aI59
aI59
aI22
aI61
aI35
aI38
aI18
aI14
aI48
aI29
aI31
aI42
aI20
aI19
aI88
aI12
aI11
aI19
aI17
aI31
aI32
aI53
aI15
aI38
aI23
aI34
aI39
aI44
aI40
aI32
aI50
aI21
aI31
aI104
aI17
aI29
aI8
aI67
aI19
aI11
aI48
aI31
aI33
aI21
aI17
aI45
aI15
aI22
aI6
aI24
aI3
aI4
aI6
aI30
aI29
aI4
aI10
aI6
aI11
aI16
aI20
aI9
aI53
asS'PursueBehavior'
p31
(lp32
I6
aI35
aI28
aI43
aI37
aI6
aI0
aI10
aI0
aI0
aI1
aI1
aI0
aI0
aI2
aI0
aI22
aI8
aI1
aI1
aI2
aI0
aI1
aI0
aI0
aI4
aI1
aI1
aI2
aI0
aI0
aI0
aI1
aI0
aI1
aI6
aI0
aI0
aI6
aI12
aI0
aI15
aI4
aI1
aI0
aI1
aI3
aI1
aI6
aI13
aI24
aI61
aI27
aI57
aI2
aI14
aI0
aI1
aI3
aI1
aI1
aI0
aI0
aI0
aI1
aI0
aI33
aI13
aI0
aI1
aI1
aI1
aI0
aI0
aI0
aI2
aI5
aI0
aI0
aI3
aI0
aI1
aI0
aI2
aI1
aI35
aI0
aI4
aI10
aI33
aI8
aI16
aI0
aI28
aI43
aI21
aI6
aI19
aI0
aI2
aI0
aI0
aI0
aI0
aI0
aI0
aI0
aI0
aI0
aI0
aI0
aI0
aI0
aI0
aI0
asS'SeekBehavior'
p33
(lp34
I8
aI18
aI0
aI7
aI2
aI9
aI23
aI57
aI0
aI3
aI0
aI0
aI1
aI1
aI1
aI2
aI60
aI13
aI1
aI3
aI2
aI3
aI0
aI0
aI2
aI39
aI0
aI0
aI1
aI0
aI2
aI1
aI0
aI1
aI0
aI34
aI2
aI1
aI41
aI2
aI3
aI27
aI0
aI2
aI0
aI0
aI2
aI0
aI1
aI0
aI1
aI4
aI3
aI20
aI0
aI31
aI2
aI0
aI1
aI0
aI2
aI0
aI0
aI3
aI1
aI1
aI12
aI0
aI0
aI1
aI0
aI0
aI0
aI1
aI0
aI2
aI1
aI2
aI2
aI4
aI1
aI4
aI2
aI2
aI2
aI4
aI0
aI1
aI2
aI2
aI4
aI1
aI2
aI3
aI2
aI3
aI2
aI13
aI13
aI27
aI43
aI68
aI19
aI19
aI20
aI73
aI11
aI25
aI8
aI23
aI25
aI14
aI10
aI10
aI111
asss.