(dp0
S'learn_scores'
p1
(lp2
F189.0
asS'test_scores'
p3
(lp4
F-343.0
asS'behavior_count'
p5
(dp6
I1
(dp7
S'FleeBehavior'
p8
(lp9
I69
aI24
asS'PursueBehavior'
p10
(lp11
I18
aI0
asS'SeekBehavior'
p12
(lp13
I45
aI0
assI2
(dp14
S'FleeBehavior'
p15
(lp16
I34
aI24
asS'PursueBehavior'
p17
(lp18
I64
aI0
asS'SeekBehavior'
p19
(lp20
I34
aI0
assI3
(dp21
S'FleeBehavior'
p22
(lp23
I30
aI23
asS'PursueBehavior'
p24
(lp25
I57
aI0
asS'SeekBehavior'
p26
(lp27
I44
aI0
assI4
(dp28
S'FleeBehavior'
p29
(lp30
I42
aI0
asS'PursueBehavior'
p31
(lp32
I59
aI23
asS'SeekBehavior'
p33
(lp34
I30
aI0
asss.