(dp0
S'learn_scores'
p1
(lp2
F-419.0
aF-349.0
aF-454.0
aF-424.0
aF250.0
aF-373.0
aF-443.0
aF-454.0
aF-302.0
aF-330.0
aF-394.0
aF-189.0
aF-233.0
aF-462.0
aF-40.0
aF-308.0
aF-356.0
aF-356.0
aF-401.0
aF-475.0
aF-357.0
aF-404.0
aF-12.0
aF-462.0
aF-447.0
aF-417.0
aF-240.0
aF-246.0
aF-88.0
aF-458.0
aF-286.0
aF-462.0
aF-365.0
aF209.0
aF-439.0
aF-370.0
aF-169.0
aF-377.0
aF-403.0
aF-239.0
aF-430.0
aF-433.0
aF-293.0
aF-392.0
aF-480.0
aF-450.0
aF-430.0
aF-419.0
aF-424.0
aF-391.0
aF-307.0
aF-430.0
aF-410.0
aF-365.0
aF134.0
aF-423.0
aF-385.0
aF-405.0
aF-406.0
aF-401.0
aF-461.0
aF-426.0
aF-434.0
aF-412.0
aF-439.0
aF-398.0
aF-104.0
aF-440.0
aF-472.0
aF-246.0
aF-479.0
aF-336.0
aF-406.0
aF-396.0
aF-872.0
aF-425.0
aF242.0
aF155.0
aF-448.0
aF-268.0
aF-274.0
aF-278.0
aF-392.0
aF-395.0
aF-175.0
aF-379.0
aF-383.0
aF-353.0
aF-115.0
aF-410.0
aF-469.0
aF-371.0
aF-403.0
aF42.0
aF173.0
aF-407.0
aF-411.0
aF-439.0
aF-327.0
aF-449.0
asS'test_scores'
p3
(lp4
F-479.0
aF177.0
aF-413.0
aF-388.0
aF-427.0
aF-340.0
aF-418.0
aF-353.0
aF-111.0
aF-402.0
aF-413.0
aF-419.0
aF-364.0
aF-463.0
aF-336.0
asS'behavior_count'
p5
(dp6
I1
(dp7
S'FleeBehavior'
p8
(lp9
I9
aI2
aI1
aI1
aI49
aI0
aI1
aI1
aI0
aI2
aI0
aI6
aI3
aI11
aI49
aI2
aI3
aI1
aI2
aI1
aI4
aI1
aI24
aI29
aI23
aI25
aI46
aI75
aI58
aI17
aI39
aI2
aI1
aI13
aI37
aI23
aI38
aI1
aI1
aI36
aI1
aI1
aI2
aI0
aI2
aI0
aI1
aI2
aI1
aI0
aI2
aI1
aI1
aI1
aI11
aI0
aI0
aI2
aI2
aI1
aI0
aI1
aI0
aI0
aI1
aI1
aI11
aI0
aI1
aI2
aI2
aI2
aI1
aI2
aI1
aI0
aI10
aI33
aI1
aI38
aI0
aI5
aI3
aI6
aI63
aI1
aI0
aI0
aI4
aI0
aI0
aI2
aI6
aI103
aI22
aI2
aI1
aI0
aI2
aI1
aI0
aI0
aI0
aI0
aI0
aI0
aI0
aI0
aI0
aI0
aI0
aI0
aI0
aI0
aI0
asS'PursueBehavior'
p10
(lp11
I8
aI37
aI0
aI1
aI12
aI0
aI1
aI1
aI3
aI2
aI2
aI58
aI15
aI2
aI35
aI39
aI6
aI1
aI1
aI0
aI1
aI0
aI3
aI3
aI2
aI0
aI2
aI1
aI0
aI1
aI7
aI19
aI34
aI102
aI2
aI3
aI6
aI2
aI0
aI2
aI1
aI2
aI1
aI0
aI0
aI2
aI1
aI2
aI1
aI0
aI2
aI0
aI1
aI1
aI7
aI3
aI3
aI3
aI0
aI2
aI1
aI2
aI2
aI4
aI1
aI1
aI2
aI1
aI1
aI0
aI0
aI1
aI2
aI3
aI2
aI0
aI4
aI3
aI0
aI2
aI1
aI2
aI0
aI1
aI6
aI1
aI0
aI0
aI4
aI0
aI1
aI1
aI0
aI7
aI6
aI1
aI0
aI0
aI0
aI0
aI0
aI0
aI0
aI0
aI0
aI0
aI0
aI0
aI0
aI0
aI0
aI0
aI0
aI0
aI0
asS'SeekBehavior'
p12
(lp13
I3
aI20
aI14
aI12
aI130
aI33
aI32
aI23
aI50
aI36
aI23
aI86
aI46
aI0
aI6
aI8
aI37
aI45
aI29
aI15
aI42
aI24
aI76
aI1
aI2
aI2
aI3
aI1
aI31
aI1
aI41
aI2
aI0
aI16
aI1
aI5
aI75
aI35
aI32
aI62
aI19
aI20
aI30
aI32
aI18
aI19
aI39
aI26
aI33
aI41
aI44
aI19
aI19
aI34
aI158
aI10
aI53
aI71
aI14
aI18
aI20
aI23
aI23
aI29
aI17
aI27
aI51
aI10
aI31
aI65
aI18
aI33
aI24
aI21
aI29
aI16
aI45
aI79
aI28
aI48
aI44
aI61
aI19
aI38
aI56
aI28
aI23
aI44
aI88
aI21
aI18
aI28
aI17
aI58
aI79
aI24
aI30
aI9
aI86
aI19
aI20
aI84
aI23
aI49
aI28
aI51
aI29
aI44
aI51
aI33
aI34
aI30
aI25
aI14
aI57
assI2
(dp14
S'FleeBehavior'
p15
(lp16
I7
aI51
aI15
aI14
aI103
aI1
aI2
aI1
aI4
aI37
aI22
aI90
aI4
aI0
aI34
aI5
aI37
aI43
aI27
aI4
aI3
aI24
aI73
aI0
aI0
aI2
aI8
aI58
aI7
aI2
aI1
aI0
aI2
aI31
aI35
aI6
aI71
aI2
aI0
aI40
aI1
aI2
aI2
aI1
aI0
aI1
aI0
aI0
aI0
aI2
aI1
aI0
aI0
aI3
aI42
aI1
aI0
aI0
aI1
aI1
aI1
aI1
aI1
aI1
aI1
aI1
aI24
aI0
aI0
aI3
aI2
aI0
aI0
aI1
aI1
aI0
aI25
aI42
aI1
aI35
aI3
aI3
aI1
aI2
aI41
aI1
aI1
aI1
aI3
aI2
aI0
aI1
aI0
aI38
aI7
aI1
aI1
aI0
aI36
aI1
aI0
aI8
aI0
aI0
aI0
aI0
aI0
aI0
aI27
aI0
aI0
aI0
aI0
aI0
aI0
asS'PursueBehavior'
p17
(lp18
I3
aI3
aI0
aI0
aI49
aI31
aI30
aI24
aI48
aI0
aI0
aI23
aI53
aI13
aI55
aI42
aI7
aI3
aI4
aI11
aI43
aI0
aI27
aI32
aI27
aI25
aI40
aI14
aI78
aI16
aI81
aI23
aI30
aI94
aI4
aI24
aI39
aI34
aI31
aI56
aI19
aI18
aI31
aI29
aI20
aI18
aI40
aI30
aI34
aI39
aI45
aI20
aI19
aI33
aI128
aI9
aI51
aI74
aI15
aI19
aI20
aI24
aI22
aI29
aI18
aI26
aI40
aI11
aI32
aI61
aI18
aI36
aI26
aI25
aI30
aI15
aI34
aI72
aI28
aI45
aI39
aI61
aI18
aI41
aI81
aI29
aI22
aI43
aI92
aI18
aI19
aI29
aI21
aI110
aI53
aI26
aI28
aI9
aI47
aI18
aI20
aI76
aI23
aI49
aI28
aI51
aI29
aI44
aI24
aI33
aI34
aI30
aI25
aI14
aI57
asS'SeekBehavior'
p19
(lp20
I10
aI5
aI0
aI0
aI39
aI1
aI2
aI0
aI1
aI3
aI3
aI37
aI7
aI0
aI1
aI1
aI2
aI1
aI1
aI1
aI1
aI1
aI3
aI1
aI0
aI0
aI3
aI5
aI4
aI1
aI5
aI0
aI3
aI6
aI1
aI0
aI9
aI1
aI2
aI3
aI0
aI3
aI0
aI2
aI0
aI2
aI1
aI0
aI1
aI0
aI2
aI0
aI2
aI0
aI6
aI3
aI4
aI2
aI0
aI1
aI0
aI1
aI1
aI3
aI0
aI2
aI0
aI0
aI1
aI2
aI0
aI0
aI1
aI0
aI1
aI1
aI0
aI1
aI0
aI8
aI2
aI4
aI3
aI2
aI3
aI0
aI0
aI0
aI1
aI1
aI0
aI1
aI2
aI20
aI47
aI0
aI2
aI0
aI5
aI0
aI0
aI0
aI0
aI0
aI0
aI0
aI0
aI0
aI0
aI0
aI0
aI0
aI0
aI0
aI0
assI3
(dp21
S'FleeBehavior'
p22
(lp23
I5
aI54
aI15
aI13
aI78
aI2
aI0
aI1
aI3
aI4
aI22
aI46
aI4
aI0
aI3
aI15
aI2
aI2
aI1
aI0
aI3
aI1
aI5
aI5
aI0
aI1
aI2
aI1
aI18
aI1
aI5
aI0
aI1
aI26
aI5
aI27
aI75
aI6
aI22
aI80
aI19
aI22
aI27
aI31
aI20
aI19
aI38
aI24
aI31
aI37
aI45
aI17
aI18
aI33
aI131
aI10
aI50
aI66
aI12
aI17
aI14
aI0
aI1
aI0
aI1
aI0
aI2
aI1
aI2
aI1
aI1
aI1
aI1
aI1
aI2
aI0
aI1
aI6
aI0
aI5
aI2
aI2
aI0
aI3
aI5
aI18
aI3
aI3
aI0
aI2
aI0
aI2
aI0
aI21
aI12
aI0
aI13
aI0
aI3
aI0
aI0
aI0
aI0
aI0
aI0
aI0
aI0
aI0
aI0
aI0
aI0
aI0
aI0
aI0
aI0
asS'PursueBehavior'
p24
(lp25
I4
aI0
aI0
aI1
aI63
aI0
aI1
aI0
aI3
aI0
aI1
aI7
aI51
aI1
aI34
aI2
aI2
aI3
aI2
aI1
aI0
aI0
aI35
aI1
aI4
aI0
aI2
aI6
aI32
aI0
aI19
aI1
aI1
aI5
aI1
aI1
aI4
aI2
aI0
aI3
aI0
aI1
aI2
aI1
aI0
aI1
aI0
aI1
aI3
aI2
aI0
aI1
aI0
aI0
aI9
aI2
aI0
aI1
aI2
aI0
aI0
aI1
aI1
aI1
aI1
aI0
aI3
aI0
aI0
aI2
aI1
aI2
aI0
aI0
aI1
aI1
aI2
aI1
aI2
aI32
aI0
aI2
aI2
aI2
aI40
aI1
aI1
aI4
aI4
aI0
aI0
aI3
aI1
aI63
aI34
aI19
aI12
aI9
aI75
aI16
aI12
aI62
aI21
aI36
aI22
aI42
aI25
aI42
aI35
aI24
aI21
aI27
aI15
aI9
aI52
asS'SeekBehavior'
p26
(lp27
I11
aI5
aI0
aI0
aI49
aI31
aI32
aI24
aI47
aI36
aI2
aI97
aI9
aI12
aI53
aI31
aI42
aI42
aI28
aI14
aI44
aI24
aI62
aI27
aI23
aI26
aI47
aI69
aI39
aI17
aI63
aI22
aI33
aI100
aI33
aI2
aI40
aI29
aI11
aI16
aI1
aI0
aI4
aI0
aI0
aI0
aI3
aI4
aI1
aI2
aI2
aI2
aI3
aI3
aI36
aI1
aI5
aI9
aI2
aI4
aI7
aI25
aI22
aI32
aI17
aI29
aI59
aI10
aI30
aI63
aI18
aI33
aI26
aI25
aI29
aI14
aI56
aI108
aI26
aI51
aI42
aI64
aI20
aI40
aI80
aI11
aI19
aI37
aI92
aI19
aI19
aI26
aI22
aI84
aI61
aI8
aI6
aI0
aI10
aI3
aI8
aI21
aI2
aI13
aI6
aI9
aI3
aI1
aI16
aI8
aI12
aI2
aI10
aI5
aI5
assI4
(dp28
S'FleeBehavior'
p29
(lp30
I7
aI28
aI0
aI1
aI87
aI27
aI0
aI0
aI5
aI1
aI1
aI5
aI7
aI0
aI22
aI2
aI1
aI1
aI0
aI0
aI0
aI0
aI20
aI3
aI0
aI0
aI3
aI1
aI30
aI0
aI8
aI0
aI2
aI5
aI1
aI0
aI3
aI1
aI1
aI3
aI0
aI0
aI1
aI1
aI0
aI0
aI1
aI0
aI1
aI2
aI1
aI1
aI0
aI0
aI12
aI0
aI2
aI5
aI0
aI0
aI1
aI0
aI1
aI2
aI0
aI0
aI9
aI1
aI0
aI1
aI1
aI0
aI2
aI0
aI1
aI2
aI2
aI16
aI0
aI37
aI1
aI1
aI1
aI0
aI39
aI3
aI0
aI3
aI4
aI1
aI1
aI1
aI0
aI36
aI15
aI3
aI0
aI0
aI26
aI0
aI0
aI6
aI0
aI0
aI0
aI0
aI0
aI0
aI12
aI0
aI0
aI0
aI0
aI0
aI0
asS'PursueBehavior'
p31
(lp32
I2
aI1
aI0
aI0
aI36
aI6
aI32
aI19
aI18
aI2
aI0
aI15
aI13
aI1
aI12
aI1
aI0
aI4
aI2
aI1
aI1
aI0
aI19
aI0
aI2
aI0
aI0
aI8
aI2
aI0
aI4
aI2
aI0
aI7
aI37
aI28
aI94
aI2
aI25
aI60
aI0
aI1
aI2
aI3
aI2
aI1
aI2
aI4
aI0
aI1
aI0
aI2
aI1
aI1
aI36
aI0
aI3
aI4
aI0
aI0
aI3
aI1
aI1
aI0
aI0
aI2
aI18
aI0
aI3
aI2
aI2
aI1
aI2
aI0
aI1
aI1
aI8
aI28
aI0
aI3
aI2
aI1
aI1
aI1
aI9
aI2
aI2
aI4
aI47
aI0
aI0
aI1
aI1
aI8
aI8
aI0
aI2
aI0
aI3
aI0
aI0
aI3
aI0
aI0
aI0
aI0
aI0
aI0
aI15
aI0
aI0
aI0
aI0
aI0
aI0
asS'SeekBehavior'
p33
(lp34
I10
aI30
aI15
aI13
aI67
aI0
aI1
aI5
aI30
aI37
aI23
aI130
aI44
aI12
aI56
aI45
aI45
aI41
aI29
aI14
aI46
aI25
aI63
aI29
aI25
aI27
aI48
aI67
aI56
aI18
aI75
aI21
aI33
aI119
aI1
aI2
aI22
aI34
aI7
aI36
aI20
aI22
aI30
aI28
aI18
aI19
aI38
aI25
aI34
aI38
aI46
aI17
aI19
aI35
aI128
aI13
aI50
aI66
aI16
aI21
aI17
aI25
aI22
aI30
aI19
aI26
aI37
aI10
aI29
aI63
aI16
aI35
aI22
aI26
aI30
aI12
aI49
aI71
aI28
aI48
aI41
aI66
aI20
aI44
aI77
aI25
aI21
aI36
aI44
aI19
aI18
aI29
aI22
aI124
aI84
aI24
aI29
aI9
aI59
aI19
aI19
aI74
aI23
aI49
aI27
aI51
aI28
aI43
aI24
aI32
aI33
aI29
aI24
aI13
aI56
asss.