(dp0
S'learn_scores'
p1
(lp2
F-383.0
aF-403.0
aF-405.0
aF-421.0
aF-343.0
aF-226.0
aF-364.0
aF-362.0
aF-447.0
aF-443.0
aF-433.0
aF-322.0
aF93.0
aF62.0
aF40.0
aF-391.0
aF-375.0
aF-383.0
aF327.0
aF-430.0
aF-364.0
aF-450.0
aF-452.0
aF-447.0
aF-286.0
aF262.0
aF-448.0
aF-403.0
aF185.0
aF-333.0
aF-126.0
aF160.0
aF-468.0
aF-442.0
aF-370.0
aF227.0
aF-391.0
aF-415.0
aF-372.0
aF-440.0
aF-434.0
aF-441.0
aF-392.0
aF-394.0
aF-291.0
aF-311.0
aF-492.0
aF-454.0
aF-51.0
aF-211.0
aF-361.0
aF-351.0
aF-383.0
aF-442.0
aF-461.0
aF-436.0
aF-350.0
aF-300.0
aF-393.0
aF-428.0
aF-419.0
aF-438.0
aF-460.0
aF-175.0
aF-386.0
aF-355.0
aF-363.0
aF-429.0
aF-324.0
aF-401.0
aF-54.0
aF-444.0
aF-374.0
aF-378.0
aF-450.0
aF-219.0
aF-397.0
aF61.0
aF-453.0
aF-429.0
aF-473.0
aF-382.0
aF-404.0
aF-476.0
aF-419.0
aF209.0
aF-397.0
aF-455.0
aF-326.0
aF-461.0
aF-370.0
aF-246.0
aF438.0
aF-382.0
aF-406.0
aF-474.0
aF-380.0
aF-291.0
aF713.0
aF-462.0
asS'test_scores'
p3
(lp4
F376.0
aF-437.0
aF-361.0
aF-443.0
aF-471.0
aF-408.0
aF-437.0
aF-350.0
aF86.0
aF-405.0
aF-390.0
aF-366.0
aF-411.0
aF-296.0
aF-402.0
asS'behavior_count'
p5
(dp6
I1
(dp7
S'FleeBehavior'
p8
(lp9
I9
aI0
aI2
aI0
aI1
aI16
aI6
aI2
aI1
aI0
aI0
aI10
aI8
aI1
aI35
aI11
aI1
aI1
aI22
aI17
aI33
aI11
aI13
aI24
aI45
aI155
aI13
aI0
aI23
aI7
aI29
aI62
aI15
aI20
aI40
aI62
aI20
aI29
aI27
aI0
aI1
aI2
aI1
aI1
aI0
aI2
aI0
aI1
aI5
aI3
aI2
aI33
aI1
aI1
aI0
aI2
aI1
aI1
aI1
aI2
aI3
aI0
aI0
aI3
aI1
aI0
aI1
aI1
aI3
aI0
aI3
aI0
aI1
aI1
aI2
aI3
aI0
aI7
aI0
aI2
aI0
aI0
aI1
aI0
aI0
aI5
aI0
aI0
aI0
aI0
aI1
aI6
aI3
aI1
aI0
aI1
aI4
aI5
aI9
aI2
aI0
aI0
aI0
aI0
aI0
aI0
aI0
aI0
aI0
aI0
aI0
aI0
aI0
aI0
aI0
asS'PursueBehavior'
p10
(lp11
I12
aI24
aI42
aI12
aI52
aI67
aI21
aI1
aI0
aI0
aI1
aI11
aI28
aI23
aI25
aI26
aI53
aI31
aI64
aI0
aI1
aI0
aI0
aI3
aI0
aI14
aI5
aI22
aI85
aI11
aI62
aI28
aI1
aI1
aI0
aI6
aI10
aI3
aI16
aI10
aI23
aI19
aI22
aI22
aI62
aI56
aI22
aI11
aI60
aI3
aI3
aI12
aI33
aI21
aI10
aI14
aI28
aI40
aI22
aI16
aI27
aI19
aI21
aI88
aI25
aI25
aI42
aI27
aI59
aI22
aI82
aI31
aI41
aI35
aI19
aI57
aI26
aI91
aI13
aI26
aI14
aI31
aI13
aI16
aI29
aI59
aI15
aI26
aI35
aI21
aI36
aI57
aI43
aI61
aI26
aI14
aI57
aI83
aI135
aI28
aI84
aI18
aI51
aI14
aI22
aI28
aI37
aI31
aI105
aI35
aI40
aI36
aI22
aI76
aI63
asS'SeekBehavior'
p12
(lp13
I33
aI0
aI2
aI0
aI1
aI14
aI7
aI30
aI16
aI14
aI12
aI51
aI71
aI84
aI81
aI5
aI2
aI1
aI37
aI4
aI1
aI0
aI0
aI1
aI2
aI10
aI1
aI1
aI7
aI35
aI25
aI0
aI3
aI1
aI1
aI16
aI2
aI4
aI0
aI1
aI1
aI1
aI0
aI1
aI0
aI3
aI1
aI3
aI67
aI65
aI27
aI17
aI0
aI1
aI2
aI1
aI1
aI0
aI1
aI0
aI0
aI0
aI0
aI4
aI1
aI1
aI0
aI1
aI2
aI0
aI40
aI4
aI2
aI2
aI0
aI39
aI1
aI42
aI0
aI1
aI0
aI2
aI0
aI1
aI1
aI78
aI2
aI0
aI2
aI0
aI3
aI3
aI67
aI1
aI0
aI0
aI0
aI3
aI64
aI3
aI0
aI0
aI0
aI0
aI0
aI0
aI0
aI0
aI0
aI0
aI0
aI0
aI0
aI0
aI0
assI2
(dp14
S'FleeBehavior'
p15
(lp16
I27
aI18
aI40
aI12
aI47
aI41
aI0
aI0
aI2
aI1
aI0
aI10
aI30
aI54
aI89
aI0
aI6
aI28
aI53
aI1
aI1
aI1
aI0
aI1
aI2
aI9
aI0
aI0
aI22
aI36
aI83
aI37
aI0
aI1
aI1
aI9
aI1
aI11
aI2
aI0
aI2
aI1
aI1
aI2
aI2
aI3
aI0
aI0
aI40
aI19
aI16
aI17
aI19
aI6
aI2
aI0
aI0
aI2
aI0
aI2
aI6
aI10
aI2
aI28
aI20
aI24
aI25
aI7
aI16
aI6
aI62
aI2
aI26
aI23
aI15
aI74
aI18
aI113
aI9
aI16
aI4
aI6
aI8
aI9
aI21
aI95
aI0
aI10
aI18
aI3
aI2
aI5
aI67
aI0
aI1
aI2
aI1
aI7
aI26
aI9
aI29
aI4
aI28
aI0
aI17
aI14
aI33
aI12
aI48
aI3
aI13
aI14
aI8
aI23
aI33
asS'PursueBehavior'
p17
(lp18
I18
aI1
aI5
aI0
aI3
aI35
aI33
aI32
aI15
aI13
aI13
aI35
aI65
aI54
aI27
aI1
aI4
aI3
aI27
aI1
aI3
aI4
aI12
aI27
aI41
aI134
aI16
aI22
aI89
aI16
aI9
aI12
aI18
aI21
aI38
aI73
aI31
aI22
aI41
aI10
aI21
aI21
aI21
aI20
aI58
aI57
aI23
aI14
aI91
aI48
aI15
aI44
aI14
aI15
aI10
aI16
aI30
aI36
aI20
aI15
aI23
aI8
aI18
aI63
aI6
aI0
aI17
aI20
aI45
aI15
aI61
aI31
aI17
aI14
aI5
aI18
aI8
aI23
aI3
aI11
aI9
aI25
aI5
aI8
aI8
aI41
aI16
aI15
aI18
aI16
aI35
aI60
aI30
aI41
aI13
aI1
aI16
aI14
aI86
aI20
aI44
aI14
aI23
aI14
aI5
aI14
aI4
aI18
aI22
aI32
aI27
aI22
aI14
aI53
aI29
asS'SeekBehavior'
p19
(lp20
I9
aI5
aI1
aI0
aI4
aI21
aI1
aI1
aI0
aI0
aI0
aI27
aI12
aI0
aI25
aI41
aI46
aI2
aI43
aI18
aI31
aI6
aI1
aI0
aI4
aI35
aI2
aI1
aI4
aI1
aI24
aI41
aI0
aI0
aI1
aI2
aI0
aI2
aI0
aI1
aI1
aI0
aI1
aI2
aI2
aI1
aI0
aI1
aI0
aI4
aI1
aI1
aI1
aI2
aI0
aI0
aI0
aI2
aI3
aI1
aI1
aI1
aI1
aI4
aI0
aI2
aI1
aI2
aI3
aI1
aI2
aI1
aI1
aI1
aI1
aI7
aI1
aI4
aI1
aI2
aI1
aI2
aI1
aI0
aI0
aI6
aI1
aI0
aI1
aI2
aI3
aI1
aI16
aI21
aI12
aI12
aI43
aI70
aI96
aI3
aI11
aI0
aI0
aI0
aI0
aI0
aI0
aI0
aI35
aI0
aI0
aI0
aI0
aI0
aI0
assI3
(dp21
S'FleeBehavior'
p22
(lp23
I14
aI7
aI40
aI10
aI42
aI38
aI29
aI31
aI16
aI13
aI13
aI42
aI80
aI71
aI35
aI3
aI1
aI2
aI39
aI1
aI2
aI0
aI0
aI0
aI0
aI51
aI11
aI0
aI14
aI1
aI4
aI17
aI1
aI1
aI1
aI4
aI1
aI0
aI3
aI0
aI0
aI1
aI1
aI0
aI2
aI2
aI0
aI1
aI27
aI3
aI1
aI2
aI1
aI0
aI0
aI0
aI0
aI1
aI0
aI0
aI0
aI0
aI1
aI4
aI0
aI2
aI1
aI0
aI2
aI2
aI37
aI1
aI0
aI1
aI0
aI40
aI0
aI40
aI1
aI2
aI0
aI0
aI0
aI0
aI1
aI71
aI0
aI0
aI0
aI1
aI1
aI2
aI51
aI5
aI0
aI0
aI5
aI1
aI69
aI0
aI14
aI0
aI0
aI0
aI0
aI0
aI0
aI0
aI38
aI0
aI0
aI0
aI0
aI0
aI0
asS'PursueBehavior'
p24
(lp25
I28
aI5
aI6
aI0
aI10
aI56
aI4
aI1
aI1
aI0
aI0
aI17
aI17
aI18
aI32
aI2
aI4
aI0
aI8
aI1
aI0
aI0
aI0
aI1
aI2
aI34
aI1
aI2
aI7
aI20
aI81
aI10
aI2
aI1
aI2
aI3
aI1
aI0
aI3
aI2
aI2
aI1
aI2
aI3
aI1
aI1
aI2
aI4
aI27
aI15
aI23
aI56
aI28
aI3
aI1
aI2
aI0
aI2
aI3
aI1
aI2
aI3
aI1
aI5
aI2
aI4
aI1
aI1
aI11
aI0
aI8
aI0
aI3
aI2
aI1
aI5
aI3
aI33
aI10
aI23
aI5
aI28
aI12
aI16
aI25
aI59
aI13
aI10
aI8
aI12
aI22
aI38
aI52
aI47
aI8
aI13
aI28
aI64
aI85
aI32
aI70
aI18
aI51
aI13
aI22
aI28
aI37
aI30
aI66
aI35
aI40
aI36
aI22
aI76
aI62
asS'SeekBehavior'
p26
(lp27
I12
aI11
aI0
aI1
aI2
aI2
aI1
aI1
aI0
aI1
aI0
aI13
aI10
aI19
aI74
aI37
aI50
aI31
aI76
aI18
aI32
aI11
aI12
aI27
aI45
aI93
aI6
aI21
aI94
aI32
aI31
aI63
aI15
aI20
aI37
aI76
aI30
aI35
aI37
aI8
aI22
aI20
aI19
aI21
aI59
aI58
aI21
aI10
aI77
aI53
aI7
aI4
aI4
aI19
aI10
aI14
aI30
aI37
aI20
aI17
aI28
aI16
aI19
aI86
aI24
aI20
aI41
aI28
aI51
aI20
aI79
aI33
aI41
aI35
aI19
aI54
aI24
aI67
aI2
aI4
aI8
aI5
aI2
aI1
aI3
aI12
aI4
aI15
aI29
aI8
aI17
aI26
aI10
aI10
aI18
aI2
aI27
aI26
aI54
aI0
aI0
aI0
aI0
aI0
aI0
aI0
aI0
aI0
aI1
aI0
aI0
aI0
aI0
aI0
aI0
assI4
(dp28
S'FleeBehavior'
p29
(lp30
I10
aI18
aI10
aI1
aI11
aI45
aI33
aI25
aI0
aI1
aI6
aI18
aI30
aI83
aI54
aI2
aI4
aI0
aI5
aI3
aI27
aI7
aI10
aI23
aI42
aI62
aI16
aI18
aI92
aI51
aI67
aI36
aI15
aI6
aI7
aI35
aI0
aI0
aI0
aI1
aI2
aI0
aI1
aI0
aI3
aI7
aI0
aI2
aI1
aI2
aI0
aI1
aI1
aI0
aI0
aI0
aI0
aI3
aI0
aI0
aI1
aI0
aI1
aI2
aI2
aI1
aI2
aI1
aI3
aI3
aI4
aI2
aI1
aI2
aI0
aI0
aI0
aI3
aI0
aI0
aI0
aI0
aI0
aI1
aI0
aI4
aI1
aI0
aI0
aI1
aI1
aI4
aI3
aI8
aI1
aI0
aI1
aI3
aI41
aI13
aI3
aI0
aI0
aI0
aI0
aI0
aI0
aI0
aI0
aI0
aI0
aI0
aI0
aI0
aI0
asS'PursueBehavior'
p31
(lp32
I38
aI4
aI33
aI10
aI41
aI23
aI1
aI5
aI0
aI1
aI1
aI7
aI17
aI7
aI37
aI0
aI4
aI1
aI102
aI16
aI5
aI4
aI1
aI3
aI5
aI110
aI2
aI3
aI21
aI2
aI19
aI42
aI3
aI15
aI32
aI44
aI29
aI32
aI41
aI6
aI21
aI22
aI19
aI23
aI56
aI52
aI22
aI11
aI122
aI67
aI30
aI60
aI28
aI22
aI11
aI15
aI29
aI35
aI22
aI18
aI29
aI17
aI20
aI88
aI23
aI24
aI40
aI27
aI60
aI19
aI117
aI32
aI41
aI35
aI18
aI98
aI26
aI129
aI12
aI28
aI13
aI32
aI14
aI15
aI29
aI135
aI16
aI24
aI35
aI19
aI39
aI57
aI105
aI51
aI8
aI11
aI44
aI65
aI115
aI11
aI45
aI0
aI2
aI0
aI7
aI2
aI12
aI2
aI67
aI18
aI1
aI11
aI2
aI19
aI15
asS'SeekBehavior'
p33
(lp34
I5
aI1
aI2
aI0
aI2
aI28
aI0
aI3
aI17
aI12
aI6
aI47
aI60
aI18
aI50
aI39
aI47
aI32
aI16
aI1
aI2
aI0
aI1
aI2
aI0
aI6
aI0
aI2
aI2
aI0
aI30
aI12
aI0
aI1
aI1
aI4
aI2
aI3
aI1
aI3
aI1
aI0
aI2
aI1
aI3
aI2
aI0
aI1
aI8
aI2
aI1
aI0
aI4
aI0
aI0
aI1
aI1
aI2
aI1
aI0
aI0
aI1
aI0
aI5
aI1
aI0
aI1
aI1
aI1
aI0
aI3
aI0
aI2
aI1
aI2
aI1
aI1
aI7
aI1
aI1
aI0
aI0
aI0
aI0
aI0
aI2
aI0
aI1
aI2
aI1
aI0
aI5
aI5
aI3
aI17
aI3
aI15
aI23
aI52
aI8
aI36
aI17
aI49
aI13
aI15
aI26
aI25
aI28
aI38
aI17
aI39
aI25
aI19
aI57
aI47
asss.