(dp0
S'learn_scores'
p1
(lp2
F-336.0
aF-427.0
aF-378.0
aF-473.0
aF-425.0
asS'test_scores'
p3
(lp4
F-239.0
asS'behavior_count'
p5
(dp6
I1
(dp7
S'FleeBehavior'
p8
(lp9
I26
aI1
aI2
aI0
aI1
aI0
asS'PursueBehavior'
p10
(lp11
I15
aI0
aI2
aI1
aI2
aI0
asS'SeekBehavior'
p12
(lp13
I36
aI16
aI34
aI13
aI32
aI110
assI2
(dp14
S'FleeBehavior'
p15
(lp16
I33
aI14
aI26
aI0
aI2
aI0
asS'PursueBehavior'
p17
(lp18
I34
aI2
aI4
aI1
aI8
aI110
asS'SeekBehavior'
p19
(lp20
I10
aI1
aI8
aI12
aI25
aI0
assI3
(dp21
S'FleeBehavior'
p22
(lp23
I36
aI0
aI3
aI3
aI9
aI1
asS'PursueBehavior'
p24
(lp25
I11
aI6
aI23
aI0
aI0
aI0
asS'SeekBehavior'
p26
(lp27
I30
aI11
aI12
aI10
aI26
aI109
assI4
(dp28
S'FleeBehavior'
p29
(lp30
I17
aI14
aI5
aI13
aI31
aI0
asS'PursueBehavior'
p31
(lp32
I34
aI1
aI4
aI0
aI1
aI0
asS'SeekBehavior'
p33
(lp34
I25
aI2
aI29
aI0
aI3
aI109
asss.