(dp0
S'learn_scores'
p1
(lp2
F-465.0
aF-469.0
asS'test_scores'
p3
(lp4
F-320.0
aF-335.0
aF-420.0
asS'behavior_count'
p5
(dp6
I1
(dp7
S'FleeBehavior'
p8
(lp9
I7
aI0
aI0
aI0
aI0
asS'PursueBehavior'
p10
(lp11
I1
aI0
aI0
aI0
aI0
asS'SeekBehavior'
p12
(lp13
I7
aI20
aI71
aI35
aI30
assI2
(dp14
S'FleeBehavior'
p15
(lp16
I7
aI14
aI0
aI0
aI0
asS'PursueBehavior'
p17
(lp18
I1
aI2
aI0
aI0
aI0
asS'SeekBehavior'
p19
(lp20
I7
aI4
aI71
aI35
aI30
assI3
(dp21
S'FleeBehavior'
p22
(lp23
I1
aI0
aI0
aI0
aI0
asS'PursueBehavior'
p24
(lp25
I5
aI0
aI0
aI0
aI0
asS'SeekBehavior'
p26
(lp27
I9
aI19
aI70
aI35
aI30
assI4
(dp28
S'FleeBehavior'
p29
(lp30
I9
aI19
aI70
aI35
aI30
asS'PursueBehavior'
p31
(lp32
I5
aI0
aI0
aI0
aI0
asS'SeekBehavior'
p33
(lp34
I1
aI0
aI0
aI0
aI0
asss.