(dp0
S'learn_scores'
p1
(lp2
F-464.0
aF-411.0
aF-286.0
aF-349.0
aF-275.0
aF-275.0
aF-428.0
aF-383.0
aF-301.0
aF-420.0
aF-442.0
aF-328.0
aF-372.0
aF-452.0
aF-401.0
aF-475.0
aF-320.0
aF-430.0
aF-424.0
aF-358.0
aF-410.0
aF-219.0
aF-381.0
aF-463.0
aF-412.0
aF-148.0
aF-442.0
aF-446.0
aF-429.0
aF-370.0
aF-462.0
aF-378.0
aF-393.0
aF-394.0
aF235.0
aF-215.0
aF-424.0
aF363.0
aF-436.0
aF-160.0
aF-426.0
aF-399.0
aF-458.0
aF-54.0
aF-345.0
aF-362.0
aF-289.0
aF-456.0
aF-406.0
aF-400.0
aF-377.0
aF-286.0
aF-391.0
aF-362.0
aF-379.0
aF-386.0
aF-398.0
aF-379.0
aF-213.0
aF-264.0
aF-390.0
aF-356.0
aF-340.0
aF-419.0
aF-436.0
aF-311.0
aF302.0
aF116.0
aF-454.0
aF25.0
aF-428.0
aF-331.0
aF-454.0
aF-375.0
aF-406.0
aF-385.0
aF-423.0
aF-372.0
aF-179.0
aF-482.0
aF-441.0
aF-336.0
aF-399.0
aF-61.0
aF-442.0
aF-393.0
aF-454.0
aF-354.0
aF-444.0
aF-452.0
aF-456.0
aF-349.0
aF-415.0
aF-441.0
aF-426.0
aF-392.0
aF-399.0
aF-399.0
aF-315.0
aF-398.0
asS'test_scores'
p3
(lp4
F-461.0
aF-441.0
aF-388.0
aF-355.0
aF-316.0
aF-443.0
aF-390.0
aF-413.0
aF-396.0
aF-370.0
aF-435.0
aF-452.0
aF-414.0
aF-389.0
aF-452.0
asS'behavior_count'
p5
(dp6
I1
(dp7
S'FleeBehavior'
p8
(lp9
I8
aI19
aI45
aI28
aI15
aI51
aI0
aI1
aI2
aI2
aI3
aI1
aI4
aI1
aI0
aI1
aI1
aI1
aI1
aI0
aI0
aI16
aI0
aI0
aI3
aI36
aI0
aI2
aI0
aI1
aI1
aI6
aI2
aI0
aI29
aI22
aI1
aI27
aI15
aI30
aI1
aI2
aI4
aI34
aI1
aI3
aI17
aI0
aI3
aI0
aI1
aI2
aI9
aI2
aI3
aI0
aI1
aI3
aI9
aI22
aI37
aI13
aI3
aI0
aI0
aI3
aI72
aI67
aI0
aI2
aI1
aI13
aI0
aI3
aI0
aI1
aI0
aI1
aI2
aI0
aI1
aI0
aI2
aI15
aI0
aI3
aI1
aI1
aI0
aI3
aI1
aI2
aI0
aI1
aI1
aI2
aI2
aI0
aI1
aI1
aI0
aI0
aI0
aI0
aI0
aI0
aI0
aI0
aI0
aI0
aI0
aI0
aI0
aI0
aI0
asS'PursueBehavior'
p10
(lp11
I14
aI2
aI12
aI4
aI17
aI26
aI26
aI33
aI76
aI28
aI18
aI37
aI37
aI11
aI22
aI23
aI48
aI20
aI21
aI38
aI30
aI63
aI30
aI14
aI18
aI101
aI13
aI14
aI28
aI28
aI20
aI92
aI31
aI13
aI87
aI44
aI23
aI68
aI2
aI26
aI32
aI27
aI15
aI41
aI23
aI21
aI44
aI16
aI23
aI29
aI36
aI83
aI23
aI31
aI46
aI26
aI27
aI36
aI124
aI43
aI11
aI33
aI53
aI20
aI36
aI86
aI56
aI22
aI5
aI27
aI2
aI5
aI0
aI1
aI9
aI4
aI4
aI8
aI11
aI6
aI17
aI36
aI18
aI35
aI11
aI20
aI23
aI52
aI14
aI27
aI26
aI36
aI24
aI10
aI24
aI41
aI17
aI40
aI32
aI38
aI12
aI22
aI18
aI36
aI76
aI34
aI20
aI23
aI27
aI50
aI25
aI23
aI24
aI29
aI23
asS'SeekBehavior'
p12
(lp13
I3
aI1
aI9
aI8
aI53
aI9
aI2
aI0
aI14
aI1
aI1
aI0
aI2
aI1
aI0
aI2
aI1
aI0
aI2
aI0
aI1
aI10
aI1
aI0
aI2
aI12
aI0
aI1
aI2
aI1
aI2
aI1
aI1
aI1
aI60
aI39
aI1
aI32
aI0
aI34
aI4
aI0
aI0
aI20
aI2
aI19
aI19
aI0
aI0
aI2
aI1
aI1
aI0
aI0
aI0
aI1
aI0
aI1
aI1
aI9
aI2
aI1
aI4
aI0
aI1
aI2
aI30
aI26
aI20
aI77
aI26
aI23
aI25
aI32
aI37
aI51
aI30
aI23
aI67
aI17
aI23
aI0
aI0
aI42
aI1
aI20
aI0
aI1
aI0
aI3
aI0
aI1
aI2
aI1
aI1
aI0
aI0
aI0
aI2
aI0
aI0
aI0
aI0
aI0
aI0
aI0
aI0
aI0
aI0
aI0
aI0
aI0
aI0
aI0
aI0
assI2
(dp14
S'FleeBehavior'
p15
(lp16
I5
aI0
aI2
aI0
aI3
aI19
aI0
aI2
aI15
aI2
aI3
aI20
aI3
aI2
aI17
aI1
aI16
aI18
aI22
aI32
aI20
aI47
aI27
aI13
aI23
aI79
aI1
aI0
aI0
aI2
aI1
aI2
aI2
aI0
aI27
aI30
aI1
aI9
aI1
aI3
aI1
aI1
aI0
aI7
aI0
aI2
aI4
aI1
aI1
aI4
aI0
aI4
aI1
aI3
aI20
aI7
aI0
aI0
aI25
aI13
aI5
aI25
aI1
aI0
aI0
aI19
aI30
aI83
aI22
aI74
aI26
aI38
aI20
aI32
aI44
aI51
aI32
aI29
aI69
aI19
aI33
aI19
aI4
aI70
aI10
aI28
aI17
aI42
aI0
aI2
aI7
aI9
aI0
aI0
aI1
aI0
aI0
aI0
aI1
aI1
aI0
aI0
aI0
aI0
aI0
aI0
aI0
aI0
aI0
aI0
aI0
aI0
aI0
aI0
aI0
asS'PursueBehavior'
p17
(lp18
I8
aI16
aI45
aI31
aI54
aI41
aI27
aI32
aI74
aI27
aI18
aI16
aI40
aI10
aI5
aI25
aI32
aI1
aI1
aI6
aI9
aI36
aI1
aI0
aI0
aI49
aI3
aI17
aI28
aI27
aI20
aI85
aI31
aI14
aI94
aI30
aI23
aI109
aI15
aI83
aI36
aI27
aI17
aI84
aI24
aI41
aI72
aI14
aI24
aI25
aI37
aI78
aI29
aI30
aI29
aI17
aI27
aI38
aI107
aI58
aI45
aI20
aI56
aI18
aI35
aI68
aI118
aI26
aI3
aI31
aI0
aI2
aI5
aI3
aI1
aI1
aI2
aI1
aI10
aI3
aI8
aI13
aI16
aI18
aI2
aI13
aI7
aI11
aI13
aI31
aI17
aI30
aI26
aI10
aI25
aI42
aI18
aI39
aI34
aI37
aI12
aI22
aI18
aI36
aI76
aI34
aI20
aI23
aI27
aI50
aI25
aI23
aI24
aI29
aI22
asS'SeekBehavior'
p19
(lp20
I12
aI6
aI19
aI9
aI28
aI26
aI1
aI0
aI2
aI2
aI1
aI2
aI0
aI0
aI0
aI0
aI2
aI1
aI1
aI0
aI2
aI6
aI3
aI1
aI0
aI21
aI9
aI0
aI1
aI1
aI2
aI12
aI1
aI0
aI54
aI45
aI0
aI9
aI0
aI4
aI0
aI1
aI2
aI3
aI1
aI0
aI4
aI1
aI1
aI2
aI1
aI4
aI1
aI0
aI0
aI2
aI1
aI2
aI2
aI3
aI0
aI1
aI3
aI2
aI2
aI4
aI10
aI6
aI0
aI1
aI3
aI1
aI0
aI1
aI1
aI3
aI0
aI2
aI0
aI1
aI0
aI4
aI0
aI3
aI0
aI2
aI0
aI1
aI1
aI0
aI3
aI0
aI0
aI1
aI0
aI1
aI1
aI1
aI0
aI1
aI0
aI0
aI0
aI0
aI0
aI0
aI0
aI0
aI0
aI0
aI0
aI0
aI0
aI0
aI0
assI3
(dp21
S'FleeBehavior'
p22
(lp23
I8
aI18
aI42
aI29
aI44
aI14
aI6
aI10
aI31
aI24
aI20
aI36
aI36
aI11
aI21
aI25
aI48
aI19
aI22
aI35
aI28
aI60
aI9
aI1
aI8
aI17
aI0
aI2
aI5
aI0
aI1
aI21
aI11
aI2
aI30
aI33
aI9
aI39
aI12
aI77
aI6
aI3
aI4
aI15
aI13
aI21
aI50
aI15
aI25
aI30
aI35
aI76
aI27
aI31
aI42
aI22
aI27
aI34
aI104
aI45
aI42
aI28
aI54
aI18
aI12
aI26
aI83
aI38
aI17
aI78
aI22
aI18
aI24
aI35
aI44
aI49
aI30
aI27
aI74
aI17
aI38
aI34
aI18
aI90
aI12
aI41
aI23
aI53
aI13
aI31
aI23
aI36
aI25
aI9
aI23
aI39
aI18
aI38
aI33
aI36
aI12
aI22
aI18
aI36
aI76
aI34
aI20
aI23
aI26
aI50
aI25
aI23
aI24
aI29
aI22
asS'PursueBehavior'
p24
(lp25
I3
aI4
aI21
aI2
aI15
aI57
aI2
aI0
aI2
aI2
aI1
aI1
aI1
aI0
aI0
aI0
aI1
aI1
aI0
aI1
aI1
aI21
aI9
aI0
aI0
aI21
aI0
aI0
aI0
aI2
aI2
aI52
aI8
aI1
aI27
aI45
aI8
aI14
aI3
aI7
aI29
aI25
aI14
aI76
aI11
aI18
aI27
aI1
aI1
aI1
aI1
aI7
aI2
aI2
aI4
aI2
aI0
aI2
aI25
aI28
aI8
aI17
aI2
aI2
aI20
aI63
aI52
aI74
aI8
aI22
aI7
aI16
aI1
aI0
aI0
aI2
aI3
aI3
aI4
aI3
aI2
aI0
aI0
aI0
aI0
aI1
aI0
aI1
aI0
aI0
aI0
aI1
aI0
aI1
aI2
aI2
aI0
aI1
aI2
aI1
aI0
aI0
aI0
aI0
aI0
aI0
aI0
aI0
aI0
aI0
aI0
aI0
aI0
aI0
aI0
asS'SeekBehavior'
p26
(lp27
I14
aI0
aI3
aI9
aI26
aI14
aI20
aI23
aI58
aI5
aI1
aI1
aI5
aI1
aI1
aI1
aI1
aI0
aI2
aI2
aI2
aI8
aI13
aI13
aI15
aI111
aI13
aI15
aI24
aI28
aI20
aI26
aI14
aI11
aI118
aI27
aI7
aI74
aI1
aI6
aI1
aI1
aI0
aI3
aI1
aI4
aI3
aI0
aI0
aI0
aI2
aI3
aI2
aI0
aI3
aI2
aI1
aI3
aI5
aI1
aI0
aI1
aI4
aI0
aI4
aI2
aI23
aI3
aI0
aI6
aI0
aI7
aI0
aI1
aI2
aI4
aI0
aI2
aI1
aI3
aI1
aI2
aI1
aI1
aI0
aI1
aI1
aI0
aI1
aI2
aI3
aI2
aI0
aI1
aI1
aI2
aI1
aI1
aI0
aI2
aI0
aI0
aI0
aI0
aI0
aI0
aI0
aI0
aI0
aI0
aI0
aI0
aI0
aI0
aI0
assI4
(dp28
S'FleeBehavior'
p29
(lp30
I3
aI2
aI30
aI27
aI57
aI53
aI27
aI30
aI69
aI1
aI0
aI1
aI2
aI2
aI1
aI4
aI7
aI1
aI0
aI1
aI2
aI10
aI2
aI0
aI2
aI73
aI11
aI16
aI24
aI29
aI21
aI92
aI28
aI8
aI88
aI36
aI1
aI23
aI1
aI2
aI3
aI9
aI17
aI52
aI24
aI39
aI66
aI1
aI1
aI1
aI1
aI7
aI3
aI2
aI2
aI3
aI2
aI3
aI14
aI1
aI1
aI11
aI10
aI0
aI3
aI10
aI82
aI80
aI23
aI71
aI26
aI20
aI25
aI35
aI43
aI51
aI30
aI30
aI70
aI22
aI38
aI30
aI17
aI83
aI11
aI38
aI24
aI50
aI13
aI27
aI24
aI36
aI21
aI10
aI24
aI39
aI19
aI36
aI33
aI37
aI11
aI22
aI18
aI35
aI76
aI33
aI20
aI23
aI26
aI50
aI25
aI23
aI24
aI29
aI22
asS'PursueBehavior'
p31
(lp32
I16
aI18
aI35
aI1
aI15
aI22
aI0
aI1
aI18
aI27
aI21
aI35
aI40
aI9
aI21
aI21
aI41
aI17
aI19
aI32
aI28
aI59
aI27
aI14
aI20
aI49
aI0
aI0
aI2
aI1
aI0
aI2
aI3
aI0
aI30
aI44
aI23
aI60
aI2
aI15
aI1
aI2
aI1
aI12
aI1
aI2
aI5
aI1
aI1
aI2
aI1
aI4
aI1
aI0
aI0
aI0
aI1
aI2
aI2
aI2
aI2
aI0
aI2
aI1
aI1
aI1
aI13
aI4
aI1
aI21
aI0
aI1
aI0
aI0
aI2
aI1
aI3
aI2
aI5
aI1
aI2
aI2
aI1
aI4
aI0
aI4
aI0
aI3
aI0
aI1
aI1
aI2
aI0
aI0
aI2
aI2
aI0
aI1
aI1
aI0
aI0
aI0
aI0
aI0
aI0
aI0
aI0
aI0
aI0
aI0
aI0
aI0
aI0
aI0
aI0
asS'SeekBehavior'
p33
(lp34
I6
aI1
aI1
aI11
aI13
aI10
aI1
aI2
aI4
aI2
aI1
aI2
aI0
aI1
aI0
aI1
aI2
aI2
aI5
aI5
aI0
aI20
aI2
aI0
aI1
aI27
aI1
aI0
aI3
aI0
aI1
aI4
aI2
aI6
aI57
aI25
aI0
aI44
aI13
aI73
aI32
aI18
aI0
aI30
aI0
aI2
aI8
aI14
aI24
aI27
aI35
aI75
aI27
aI31
aI47
aI23
aI25
aI34
aI117
aI71
aI47
aI35
aI48
aI18
aI32
aI80
aI63
aI31
aI0
aI13
aI3
aI20
aI0
aI1
aI1
aI3
aI0
aI0
aI4
aI0
aI1
aI4
aI1
aI4
aI1
aI1
aI0
aI1
aI1
aI4
aI1
aI1
aI4
aI1
aI0
aI1
aI0
aI2
aI1
aI1
aI0
aI0
aI0
aI0
aI0
aI0
aI0
aI0
aI0
aI0
aI0
aI0
aI0
aI0
aI0
asss.