(dp0
S'learn_scores'
p1
(lp2
F-366.0
aF178.0
aF-438.0
aF-462.0
aF-391.0
aF-415.0
aF-411.0
aF-385.0
aF-440.0
aF-244.0
aF-432.0
aF-436.0
aF-447.0
aF-354.0
aF-419.0
aF-147.0
aF-376.0
aF-464.0
aF-459.0
aF-416.0
aF-347.0
aF-270.0
aF-461.0
aF298.0
aF-295.0
aF-365.0
aF-83.0
aF-476.0
aF-452.0
aF-435.0
aF-351.0
aF-363.0
aF-435.0
aF-391.0
aF-429.0
aF-466.0
aF-415.0
aF-423.0
aF-389.0
aF-396.0
aF-466.0
aF-387.0
aF-405.0
aF-420.0
aF-335.0
aF-352.0
aF-450.0
aF-431.0
aF-326.0
aF-291.0
aF-363.0
aF-390.0
aF-410.0
aF-484.0
aF-413.0
aF-387.0
aF-308.0
aF-438.0
aF-406.0
aF-280.0
aF-387.0
aF-460.0
aF-445.0
aF-384.0
aF-424.0
aF-362.0
aF-416.0
aF-341.0
aF-424.0
aF-359.0
aF-457.0
aF-405.0
aF-427.0
aF-440.0
aF-285.0
aF-459.0
aF-402.0
aF-462.0
aF-326.0
aF-402.0
aF-435.0
aF-372.0
aF160.0
aF178.0
aF-441.0
aF-453.0
aF-338.0
aF-407.0
aF-425.0
aF429.0
aF-402.0
aF-476.0
aF-286.0
aF-442.0
aF-440.0
aF-408.0
aF-452.0
aF-281.0
aF-393.0
aF-309.0
asS'test_scores'
p3
(lp4
F-462.0
aF-300.0
aF-409.0
aF-333.0
aF-375.0
aF364.0
aF-488.0
aF77.0
aF-412.0
aF-107.0
aF-465.0
aF-384.0
aF-462.0
aF-347.0
aF-359.0
asS'behavior_count'
p5
(dp6
I1
(dp7
S'FleeBehavior'
p8
(lp9
I18
aI52
aI3
aI3
aI1
aI0
aI0
aI1
aI0
aI13
aI2
aI2
aI0
aI4
aI4
aI16
aI3
aI2
aI12
aI4
aI1
aI27
aI2
aI29
aI67
aI30
aI30
aI13
aI1
aI2
aI4
aI18
aI1
aI4
aI14
aI7
aI33
aI13
aI18
aI16
aI16
aI27
aI24
aI19
aI33
aI47
aI36
aI17
aI50
aI82
aI17
aI11
aI44
aI20
aI18
aI13
aI39
aI13
aI24
aI61
aI32
aI6
aI21
aI29
aI23
aI47
aI18
aI38
aI20
aI46
aI16
aI24
aI36
aI20
aI42
aI18
aI21
aI12
aI52
aI50
aI11
aI19
aI94
aI45
aI16
aI1
aI5
aI8
aI8
aI67
aI21
aI0
aI4
aI1
aI0
aI0
aI0
aI7
aI7
aI2
aI1
aI8
aI6
aI2
aI5
aI10
aI0
aI7
aI7
aI11
aI5
aI4
aI5
aI5
aI4
asS'PursueBehavior'
p10
(lp11
I13
aI11
aI1
aI0
aI2
aI1
aI0
aI3
aI1
aI3
aI0
aI0
aI3
aI1
aI1
aI10
aI36
aI1
aI1
aI0
aI0
aI4
aI0
aI13
aI8
aI2
aI1
aI3
aI10
aI23
aI48
aI3
aI24
aI42
aI4
aI8
aI1
aI0
aI1
aI20
aI0
aI0
aI0
aI2
aI2
aI2
aI2
aI1
aI1
aI11
aI24
aI10
aI1
aI1
aI0
aI10
aI1
aI0
aI1
aI3
aI2
aI4
aI1
aI2
aI0
aI2
aI3
aI0
aI2
aI2
aI1
aI1
aI1
aI1
aI1
aI0
aI1
aI0
aI3
aI1
aI1
aI0
aI3
aI30
aI4
aI9
aI31
aI11
aI4
aI24
aI24
aI15
aI47
aI14
aI31
aI18
aI12
aI44
aI14
aI4
aI3
aI28
aI7
aI28
aI6
aI12
aI14
aI31
aI20
aI44
aI5
aI50
aI8
aI30
aI20
asS'SeekBehavior'
p12
(lp13
I16
aI60
aI34
aI10
aI29
aI14
aI22
aI21
aI10
aI78
aI21
aI35
aI14
aI39
aI24
aI52
aI8
aI11
aI7
aI23
aI36
aI59
aI10
aI80
aI11
aI3
aI23
aI1
aI2
aI1
aI10
aI2
aI1
aI5
aI2
aI1
aI1
aI0
aI0
aI1
aI0
aI1
aI1
aI0
aI0
aI3
aI2
aI3
aI5
aI9
aI3
aI10
aI5
aI3
aI6
aI14
aI29
aI6
aI2
aI7
aI3
aI1
aI3
aI4
aI2
aI4
aI5
aI3
aI3
aI2
aI0
aI0
aI1
aI0
aI2
aI1
aI1
aI1
aI1
aI1
aI3
aI4
aI43
aI17
aI2
aI4
aI3
aI9
aI3
aI30
aI8
aI1
aI5
aI8
aI0
aI11
aI11
aI11
aI12
aI54
aI9
aI14
aI17
aI3
aI25
aI64
aI14
aI66
aI6
aI93
aI5
aI20
aI10
aI22
aI16
assI2
(dp14
S'FleeBehavior'
p15
(lp16
I16
aI67
aI0
aI0
aI2
aI0
aI0
aI0
aI0
aI2
aI1
aI0
aI0
aI2
aI0
aI12
aI4
aI0
aI1
aI3
aI1
aI2
aI0
aI21
aI36
aI2
aI18
aI1
aI2
aI0
aI4
aI0
aI1
aI0
aI0
aI0
aI2
aI1
aI2
aI0
aI1
aI2
aI2
aI1
aI0
aI1
aI1
aI0
aI3
aI12
aI2
aI0
aI2
aI7
aI7
aI8
aI10
aI1
aI0
aI2
aI3
aI0
aI0
aI2
aI2
aI0
aI2
aI3
aI1
aI5
aI1
aI0
aI1
aI0
aI2
aI1
aI0
aI0
aI2
aI0
aI2
aI2
aI30
aI22
aI2
aI1
aI0
aI1
aI0
aI19
aI3
aI2
aI1
aI1
aI1
aI2
aI0
aI4
aI1
aI1
aI0
aI0
aI0
aI0
aI0
aI37
aI0
aI39
aI0
aI39
aI0
aI0
aI0
aI0
aI0
asS'PursueBehavior'
p17
(lp18
I16
aI30
aI0
aI0
aI2
aI0
aI2
aI1
aI0
aI3
aI1
aI2
aI0
aI2
aI0
aI1
aI2
aI1
aI1
aI1
aI1
aI3
aI1
aI22
aI47
aI31
aI33
aI15
aI10
aI24
aI56
aI22
aI25
aI48
aI19
aI16
aI32
aI12
aI17
aI37
aI15
aI24
aI22
aI20
aI35
aI51
aI38
aI19
aI52
aI84
aI41
aI28
aI44
aI16
aI13
aI7
aI10
aI4
aI1
aI3
aI0
aI0
aI0
aI0
aI1
aI1
aI2
aI2
aI2
aI2
aI0
aI4
aI1
aI1
aI4
aI1
aI2
aI1
aI2
aI0
aI0
aI0
aI5
aI11
aI12
aI4
aI12
aI16
aI3
aI68
aI45
aI14
aI51
aI20
aI27
aI24
aI19
aI50
aI30
aI50
aI0
aI6
aI0
aI0
aI0
aI0
aI0
aI0
aI2
aI3
aI0
aI6
aI0
aI0
aI0
asS'SeekBehavior'
p19
(lp20
I14
aI26
aI38
aI12
aI28
aI15
aI20
aI24
aI11
aI89
aI21
aI35
aI17
aI40
aI29
aI64
aI41
aI13
aI18
aI23
aI35
aI85
aI11
aI79
aI3
aI2
aI3
aI1
aI1
aI2
aI2
aI1
aI0
aI3
aI0
aI0
aI1
aI0
aI0
aI0
aI0
aI2
aI1
aI0
aI0
aI0
aI1
aI2
aI1
aI6
aI1
aI3
aI4
aI1
aI3
aI22
aI49
aI14
aI26
aI66
aI34
aI11
aI25
aI33
aI22
aI52
aI22
aI36
aI22
aI43
aI16
aI21
aI36
aI20
aI39
aI17
aI20
aI12
aI52
aI52
aI13
aI21
aI105
aI59
aI8
aI8
aI27
aI10
aI12
aI34
aI5
aI0
aI4
aI1
aI3
aI2
aI4
aI8
aI2
aI9
aI13
aI44
aI30
aI33
aI36
aI49
aI28
aI65
aI31
aI106
aI15
aI68
aI23
aI57
aI40
assI3
(dp21
S'FleeBehavior'
p22
(lp23
I18
aI59
aI34
aI12
aI29
aI14
aI17
aI19
aI0
aI28
aI2
aI31
aI17
aI40
aI24
aI58
aI1
aI0
aI0
aI5
aI2
aI9
aI11
aI39
aI17
aI14
aI48
aI5
aI1
aI2
aI19
aI22
aI25
aI48
aI19
aI16
aI34
aI11
aI17
aI36
aI16
aI23
aI24
aI18
aI27
aI49
aI35
aI20
aI51
aI83
aI4
aI8
aI5
aI1
aI1
aI2
aI3
aI1
aI3
aI2
aI0
aI1
aI1
aI1
aI0
aI3
aI0
aI2
aI1
aI0
aI2
aI3
aI3
aI1
aI2
aI3
aI1
aI0
aI1
aI2
aI1
aI1
aI44
aI7
aI13
aI10
aI8
aI25
aI14
aI82
aI36
aI16
aI42
aI20
aI29
aI27
aI21
aI58
aI33
aI57
aI13
aI50
aI29
aI33
aI35
aI86
aI28
aI104
aI33
aI147
aI15
aI74
aI23
aI57
aI40
asS'PursueBehavior'
p24
(lp25
I6
aI46
aI1
aI0
aI0
aI0
aI3
aI5
aI11
aI64
aI21
aI6
aI0
aI3
aI3
aI3
aI45
aI14
aI19
aI20
aI33
aI63
aI0
aI22
aI47
aI20
aI2
aI10
aI11
aI22
aI41
aI0
aI0
aI0
aI0
aI0
aI0
aI1
aI1
aI1
aI0
aI1
aI1
aI1
aI5
aI1
aI2
aI1
aI4
aI14
aI40
aI23
aI43
aI22
aI22
aI35
aI63
aI15
aI23
aI65
aI36
aI10
aI23
aI31
aI25
aI48
aI26
aI39
aI23
aI47
aI15
aI18
aI33
aI18
aI40
aI14
aI21
aI13
aI55
aI50
aI14
aI21
aI84
aI67
aI7
aI3
aI30
aI0
aI1
aI14
aI16
aI0
aI10
aI0
aI1
aI1
aI1
aI2
aI0
aI2
aI0
aI0
aI0
aI0
aI0
aI0
aI0
aI0
aI0
aI0
aI0
aI0
aI0
aI0
aI0
asS'SeekBehavior'
p26
(lp27
I22
aI18
aI3
aI0
aI3
aI1
aI1
aI1
aI0
aI2
aI0
aI0
aI0
aI1
aI2
aI16
aI1
aI0
aI1
aI2
aI2
aI18
aI0
aI61
aI22
aI1
aI4
aI1
aI1
aI1
aI2
aI1
aI1
aI3
aI0
aI0
aI1
aI1
aI1
aI0
aI0
aI4
aI0
aI2
aI3
aI2
aI3
aI0
aI1
aI4
aI0
aI0
aI2
aI1
aI0
aI0
aI2
aI3
aI0
aI3
aI1
aI0
aI1
aI2
aI0
aI1
aI0
aI0
aI1
aI2
aI0
aI4
aI2
aI1
aI3
aI2
aI0
aI0
aI0
aI0
aI0
aI0
aI12
aI18
aI1
aI0
aI1
aI2
aI0
aI25
aI1
aI0
aI4
aI2
aI1
aI0
aI0
aI2
aI0
aI0
aI0
aI0
aI0
aI0
aI0
aI0
aI0
aI0
aI0
aI0
aI0
aI0
aI0
aI0
aI0
assI4
(dp28
S'FleeBehavior'
p29
(lp30
I12
aI42
aI3
aI0
aI0
aI0
aI0
aI1
aI0
aI11
aI0
aI0
aI1
aI0
aI2
aI4
aI6
aI1
aI1
aI0
aI0
aI3
aI1
aI10
aI42
aI33
aI28
aI13
aI0
aI1
aI4
aI2
aI0
aI1
aI1
aI0
aI0
aI1
aI0
aI3
aI0
aI0
aI0
aI0
aI0
aI1
aI1
aI2
aI1
aI24
aI10
aI2
aI1
aI0
aI2
aI4
aI3
aI0
aI0
aI4
aI0
aI0
aI0
aI2
aI2
aI0
aI0
aI1
aI1
aI2
aI0
aI4
aI2
aI2
aI2
aI1
aI0
aI1
aI2
aI4
aI0
aI0
aI8
aI16
aI11
aI9
aI33
aI26
aI15
aI73
aI50
aI14
aI53
aI19
aI27
aI23
aI19
aI45
aI19
aI8
aI12
aI25
aI29
aI24
aI33
aI41
aI26
aI47
aI26
aI64
aI15
aI53
aI22
aI41
aI25
asS'PursueBehavior'
p31
(lp32
I22
aI75
aI34
aI12
aI29
aI14
aI21
aI24
aI10
aI68
aI0
aI7
aI14
aI8
aI6
aI9
aI1
aI1
aI0
aI0
aI0
aI3
aI1
aI21
aI25
aI1
aI17
aI1
aI0
aI1
aI1
aI3
aI0
aI3
aI1
aI1
aI2
aI1
aI1
aI1
aI1
aI2
aI0
aI0
aI1
aI4
aI4
aI0
aI4
aI11
aI21
aI29
aI47
aI24
aI21
aI32
aI63
aI18
aI25
aI65
aI34
aI10
aI23
aI31
aI22
aI50
aI26
aI39
aI23
aI41
aI16
aI21
aI34
aI18
aI39
aI18
aI22
aI11
aI51
aI47
aI15
aI21
aI127
aI49
aI10
aI4
aI2
aI0
aI0
aI19
aI0
aI2
aI1
aI0
aI3
aI5
aI2
aI15
aI12
aI48
aI1
aI25
aI0
aI9
aI2
aI45
aI2
aI57
aI7
aI83
aI0
aI21
aI0
aI16
aI14
asS'SeekBehavior'
p33
(lp34
I12
aI5
aI1
aI0
aI2
aI1
aI0
aI0
aI0
aI15
aI22
aI30
aI2
aI36
aI21
aI64
aI40
aI12
aI18
aI26
aI37
aI84
aI9
aI91
aI18
aI1
aI8
aI2
aI12
aI23
aI56
aI18
aI26
aI47
aI17
aI15
aI33
aI11
aI18
aI32
aI15
aI25
aI25
aI20
aI34
aI47
aI35
aI19
aI51
aI66
aI13
aI0
aI2
aI0
aI0
aI1
aI2
aI0
aI1
aI1
aI3
aI0
aI2
aI1
aI1
aI2
aI0
aI1
aI0
aI6
aI1
aI0
aI1
aI0
aI4
aI0
aI0
aI1
aI3
aI1
aI0
aI1
aI5
aI27
aI0
aI0
aI3
aI1
aI0
aI29
aI2
aI0
aI2
aI3
aI1
aI0
aI1
aI1
aI2
aI3
aI0
aI0
aI0
aI0
aI0
aI0
aI0
aI0
aI0
aI0
aI0
aI0
aI0
aI0
aI0
asss.