(dp0
S'learn_scores'
p1
(lp2
F-384.0
aF-435.0
aF-393.0
aF-372.0
aF-451.0
aF-433.0
aF126.0
aF-422.0
aF-375.0
aF-440.0
aF-408.0
aF-432.0
aF-917.0
aF-433.0
aF-406.0
aF-345.0
aF-412.0
aF-192.0
aF-367.0
aF-410.0
aF-419.0
aF-390.0
aF-435.0
aF-445.0
aF-1.0
aF-335.0
aF-381.0
aF-434.0
aF-99.0
aF-379.0
aF-441.0
aF-486.0
aF-402.0
aF-442.0
aF-381.0
aF-190.0
aF-337.0
aF-372.0
aF-277.0
aF-424.0
aF-280.0
aF-354.0
aF-426.0
aF-443.0
aF187.0
aF58.0
aF-459.0
aF-384.0
aF-107.0
aF-170.0
aF-388.0
aF-270.0
aF-395.0
aF-413.0
aF-339.0
aF-296.0
aF-390.0
aF-349.0
aF-453.0
aF-214.0
aF-447.0
aF-400.0
aF-397.0
aF-229.0
aF582.0
aF-489.0
aF-391.0
aF-314.0
aF-334.0
aF-446.0
aF-409.0
aF-433.0
aF-388.0
aF-396.0
aF-370.0
aF-32.0
aF-394.0
aF290.0
aF-373.0
aF-387.0
aF-385.0
aF-245.0
aF-377.0
aF-267.0
aF-386.0
aF-346.0
aF-270.0
aF-480.0
aF-387.0
aF-415.0
aF-326.0
aF-457.0
aF-434.0
aF-461.0
aF-382.0
aF-393.0
aF-370.0
aF-369.0
aF-390.0
aF-341.0
asS'test_scores'
p3
(lp4
F-388.0
aF48.0
aF-457.0
aF-451.0
aF-456.0
aF-358.0
aF-447.0
aF-383.0
aF-477.0
aF-463.0
aF-362.0
aF-342.0
aF-342.0
aF116.0
aF-406.0
asS'behavior_count'
p5
(dp6
I1
(dp7
S'FleeBehavior'
p8
(lp9
I8
aI2
aI0
aI0
aI0
aI1
aI19
aI20
aI1
aI0
aI1
aI1
aI2
aI23
aI17
aI32
aI21
aI63
aI26
aI19
aI19
aI29
aI14
aI16
aI71
aI44
aI39
aI23
aI42
aI35
aI3
aI3
aI4
aI0
aI2
aI36
aI2
aI0
aI13
aI2
aI1
aI2
aI3
aI0
aI92
aI36
aI2
aI0
aI14
aI82
aI28
aI41
aI23
aI21
aI42
aI26
aI14
aI7
aI5
aI21
aI16
aI27
aI36
aI77
aI124
aI1
aI4
aI2
aI0
aI1
aI2
aI2
aI2
aI1
aI0
aI3
aI5
aI14
aI3
aI2
aI8
aI7
aI33
aI14
aI35
aI60
aI22
aI20
aI17
aI24
aI60
aI18
aI33
aI29
aI42
aI38
aI68
aI28
aI30
aI47
aI28
aI113
aI18
aI31
aI16
aI58
aI27
aI44
aI17
aI23
aI23
aI53
aI53
aI74
aI36
asS'PursueBehavior'
p10
(lp11
I14
aI14
aI32
aI23
aI19
aI22
aI46
aI1
aI1
aI4
aI29
aI12
aI14
aI1
aI0
aI2
aI2
aI13
aI0
aI1
aI0
aI0
aI2
aI0
aI23
aI2
aI1
aI2
aI6
aI11
aI17
aI23
aI19
aI13
aI29
aI77
aI45
aI32
aI53
aI13
aI39
aI21
aI23
aI22
aI123
aI63
aI18
aI0
aI0
aI50
aI4
aI14
aI1
aI0
aI3
aI27
aI36
aI43
aI7
aI86
aI0
aI3
aI0
aI2
aI13
aI17
aI28
aI68
aI32
aI14
aI18
aI21
aI36
aI35
aI51
aI66
aI29
aI64
aI48
aI34
aI54
aI51
aI3
aI0
aI3
aI2
aI27
aI1
aI0
aI1
aI2
aI0
aI1
aI1
aI1
aI3
aI1
aI2
aI0
aI1
aI0
aI0
aI0
aI0
aI0
aI0
aI0
aI0
aI0
aI0
aI0
aI0
aI0
aI0
aI0
asS'SeekBehavior'
p12
(lp13
I3
aI0
aI2
aI0
aI3
aI1
aI30
aI2
aI24
aI36
aI19
aI0
aI1
aI0
aI0
aI1
aI0
aI37
aI2
aI0
aI1
aI1
aI0
aI0
aI8
aI0
aI2
aI0
aI1
aI4
aI1
aI0
aI0
aI0
aI1
aI8
aI1
aI0
aI2
aI0
aI0
aI1
aI1
aI1
aI8
aI14
aI9
aI25
aI34
aI48
aI7
aI6
aI2
aI2
aI5
aI3
aI0
aI0
aI2
aI7
aI2
aI1
aI1
aI1
aI12
aI1
aI0
aI4
aI2
aI1
aI0
aI0
aI1
aI0
aI0
aI3
aI1
aI13
aI3
aI2
aI3
aI18
aI12
aI34
aI8
aI4
aI31
aI0
aI0
aI1
aI5
aI0
aI1
aI2
aI0
aI2
aI1
aI0
aI1
aI4
aI0
aI0
aI0
aI0
aI0
aI0
aI0
aI0
aI0
aI0
aI0
aI0
aI0
aI0
aI0
assI2
(dp14
S'FleeBehavior'
p15
(lp16
I5
aI1
aI0
aI0
aI0
aI0
aI6
aI1
aI3
aI0
aI6
aI0
aI0
aI0
aI0
aI0
aI1
aI27
aI6
aI0
aI1
aI2
aI2
aI0
aI10
aI2
aI4
aI3
aI11
aI29
aI21
aI25
aI22
aI13
aI32
aI111
aI45
aI12
aI6
aI0
aI3
aI0
aI1
aI1
aI39
aI33
aI1
aI0
aI0
aI25
aI5
aI9
aI22
aI23
aI46
aI36
aI2
aI1
aI1
aI20
aI0
aI2
aI1
aI2
aI49
aI1
aI1
aI1
aI1
aI3
aI0
aI0
aI3
aI3
aI2
aI4
aI0
aI2
aI4
aI2
aI2
aI5
aI20
aI21
aI38
aI59
aI11
aI11
aI0
aI0
aI2
aI0
aI1
aI0
aI1
aI0
aI5
aI1
aI0
aI2
aI0
aI1
aI0
aI0
aI0
aI0
aI0
aI0
aI0
aI0
aI0
aI0
aI0
aI0
aI0
asS'PursueBehavior'
p17
(lp18
I11
aI15
aI32
aI22
aI22
aI23
aI73
aI22
aI22
aI39
aI39
aI13
aI17
aI24
aI17
aI33
aI22
aI83
aI21
aI20
aI17
aI25
aI13
aI15
aI79
aI16
aI36
aI22
aI17
aI20
aI0
aI1
aI0
aI0
aI0
aI1
aI3
aI18
aI20
aI1
aI0
aI0
aI1
aI0
aI37
aI61
aI28
aI24
aI48
aI153
aI27
aI46
aI2
aI0
aI2
aI19
aI46
aI44
aI12
aI91
aI1
aI10
aI0
aI38
aI20
aI2
aI0
aI10
aI4
aI0
aI0
aI3
aI1
aI3
aI1
aI7
aI2
aI19
aI7
aI3
aI3
aI14
aI14
aI7
aI6
aI6
aI53
aI10
aI17
aI25
aI63
aI16
aI34
aI30
aI40
aI40
aI63
aI27
aI28
aI50
aI28
aI112
aI18
aI31
aI16
aI58
aI27
aI44
aI17
aI23
aI22
aI53
aI53
aI74
aI36
asS'SeekBehavior'
p19
(lp20
I9
aI0
aI1
aI0
aI0
aI1
aI15
aI0
aI0
aI1
aI3
aI0
aI0
aI0
aI0
aI2
aI0
aI3
aI1
aI0
aI2
aI3
aI1
aI0
aI13
aI27
aI2
aI0
aI21
aI1
aI0
aI0
aI0
aI0
aI0
aI8
aI0
aI2
aI42
aI14
aI37
aI24
aI25
aI22
aI147
aI18
aI0
aI1
aI0
aI2
aI7
aI5
aI1
aI0
aI2
aI1
aI2
aI4
aI0
aI3
aI17
aI19
aI36
aI40
aI80
aI16
aI31
aI63
aI29
aI13
aI20
aI20
aI35
aI30
aI48
aI61
aI33
aI70
aI42
aI33
aI60
aI56
aI14
aI19
aI2
aI1
aI16
aI0
aI0
aI1
aI2
aI1
aI0
aI1
aI2
aI3
aI2
aI2
aI2
aI0
aI0
aI0
aI0
aI0
aI0
aI0
aI0
aI0
aI0
aI0
aI0
aI0
aI0
aI0
aI0
assI3
(dp21
S'FleeBehavior'
p22
(lp23
I9
aI1
aI2
aI16
aI3
aI2
aI31
aI0
aI2
aI4
aI5
aI1
aI0
aI2
aI2
aI0
aI0
aI10
aI5
aI0
aI0
aI1
aI0
aI1
aI5
aI13
aI3
aI2
aI18
aI9
aI2
aI0
aI2
aI5
aI2
aI28
aI11
aI1
aI7
aI0
aI1
aI2
aI0
aI1
aI20
aI55
aI3
aI1
aI0
aI22
aI29
aI32
aI2
aI0
aI3
aI1
aI1
aI1
aI0
aI6
aI4
aI2
aI0
aI6
aI57
aI16
aI10
aI54
aI11
aI0
aI0
aI0
aI2
aI1
aI3
aI0
aI0
aI1
aI7
aI17
aI42
aI33
aI27
aI6
aI1
aI16
aI36
aI0
aI0
aI1
aI18
aI9
aI12
aI11
aI8
aI10
aI9
aI17
aI19
aI26
aI10
aI29
aI1
aI2
aI4
aI14
aI6
aI1
aI9
aI2
aI2
aI7
aI3
aI7
aI3
asS'PursueBehavior'
p24
(lp25
I8
aI13
aI29
aI6
aI19
aI22
aI53
aI23
aI22
aI34
aI43
aI11
aI16
aI19
aI13
aI34
aI21
aI98
aI16
aI20
aI16
aI26
aI15
aI14
aI80
aI16
aI19
aI3
aI21
aI31
aI16
aI26
aI20
aI8
aI29
aI85
aI33
aI31
aI55
aI2
aI2
aI2
aI27
aI22
aI156
aI27
aI3
aI3
aI13
aI36
aI10
aI14
aI2
aI3
aI6
aI7
aI42
aI13
aI1
aI28
aI0
aI3
aI8
aI11
aI74
aI2
aI22
aI18
aI23
aI16
aI19
aI22
aI37
aI34
aI44
aI36
aI32
aI54
aI46
aI19
aI22
aI41
aI17
aI40
aI43
aI50
aI44
aI20
aI16
aI25
aI43
aI7
aI20
aI20
aI33
aI31
aI55
aI13
aI10
aI24
aI0
aI22
aI6
aI15
aI7
aI28
aI5
aI31
aI3
aI9
aI13
aI19
aI32
aI20
aI13
asS'SeekBehavior'
p26
(lp27
I8
aI1
aI2
aI0
aI0
aI0
aI10
aI0
aI1
aI2
aI0
aI0
aI1
aI2
aI2
aI1
aI1
aI4
aI7
aI0
aI3
aI3
aI1
aI0
aI16
aI16
aI19
aI20
aI10
aI10
aI3
aI0
aI0
aI0
aI1
aI7
aI3
aI0
aI6
aI12
aI37
aI20
aI0
aI0
aI47
aI30
aI23
aI20
aI35
aI122
aI0
aI14
aI21
aI20
aI41
aI48
aI7
aI35
aI12
aI80
aI14
aI25
aI29
aI63
aI17
aI1
aI0
aI2
aI0
aI0
aI1
aI1
aI0
aI1
aI4
aI36
aI2
aI36
aI0
aI1
aI1
aI1
aI3
aI1
aI2
aI0
aI0
aI1
aI1
aI0
aI5
aI1
aI3
aI0
aI2
aI2
aI6
aI0
aI1
aI2
aI18
aI61
aI11
aI14
aI5
aI16
aI16
aI12
aI5
aI12
aI7
aI27
aI18
aI47
aI20
assI4
(dp28
S'FleeBehavior'
p29
(lp30
I10
aI9
aI16
aI5
aI19
aI5
aI40
aI0
aI0
aI2
aI8
aI11
aI15
aI22
aI16
aI33
aI19
aI53
aI27
aI19
aI18
aI25
aI13
aI15
aI72
aI29
aI2
aI2
aI1
aI6
aI20
aI11
aI2
aI0
aI10
aI6
aI3
aI7
aI31
aI0
aI0
aI2
aI0
aI0
aI59
aI48
aI11
aI6
aI11
aI57
aI23
aI31
aI12
aI8
aI25
aI36
aI39
aI46
aI12
aI91
aI16
aI28
aI33
aI37
aI67
aI17
aI28
aI71
aI31
aI15
aI16
aI22
aI34
aI35
aI46
aI58
aI27
aI83
aI50
aI34
aI62
aI69
aI30
aI24
aI10
aI5
aI21
aI10
aI11
aI15
aI50
aI15
aI35
aI28
aI40
aI42
aI66
aI28
aI30
aI49
aI28
aI103
aI17
aI31
aI16
aI57
aI27
aI43
aI17
aI23
aI22
aI53
aI52
aI53
aI36
asS'PursueBehavior'
p31
(lp32
I8
aI4
aI15
aI16
aI3
aI17
aI28
aI21
aI25
aI37
aI40
aI0
aI1
aI0
aI1
aI1
aI1
aI19
aI0
aI0
aI1
aI3
aI1
aI0
aI14
aI15
aI38
aI21
aI46
aI42
aI0
aI1
aI2
aI2
aI2
aI53
aI36
aI5
aI17
aI14
aI40
aI19
aI26
aI23
aI143
aI39
aI1
aI3
aI13
aI76
aI5
aI6
aI9
aI1
aI1
aI0
aI3
aI2
aI1
aI1
aI1
aI2
aI1
aI35
aI45
aI2
aI2
aI1
aI2
aI1
aI2
aI0
aI2
aI1
aI3
aI8
aI5
aI2
aI2
aI2
aI3
aI1
aI0
aI2
aI2
aI3
aI5
aI2
aI0
aI1
aI2
aI1
aI0
aI1
aI1
aI1
aI2
aI2
aI0
aI2
aI0
aI9
aI0
aI0
aI0
aI0
aI0
aI0
aI0
aI0
aI0
aI0
aI0
aI15
aI0
asS'SeekBehavior'
p33
(lp34
I7
aI2
aI2
aI1
aI0
aI2
aI26
aI1
aI0
aI1
aI0
aI1
aI1
aI1
aI0
aI1
aI2
aI40
aI1
aI1
aI0
aI2
aI1
aI0
aI15
aI1
aI1
aI2
aI2
aI1
aI1
aI14
aI18
aI10
aI20
aI61
aI8
aI20
aI20
aI0
aI0
aI3
aI1
aI0
aI21
aI25
aI17
aI15
aI23
aI47
aI10
aI23
aI4
aI14
aI23
aI20
aI8
aI1
aI0
aI22
aI1
aI0
aI3
aI7
aI36
aI0
aI2
aI2
aI1
aI0
aI1
aI1
aI2
aI0
aI1
aI6
aI2
aI5
aI1
aI1
aI0
aI5
aI17
aI21
aI34
aI58
aI54
aI9
aI6
aI10
aI14
aI1
aI0
aI2
aI1
aI0
aI2
aI0
aI0
aI0
aI0
aI0
aI0
aI0
aI0
aI1
aI0
aI0
aI0
aI0
aI0
aI0
aI0
aI6
aI0
asss.