(dp0
S'learn_scores'
p1
(lp2
F-437.0
aF-12.0
aF-356.0
aF-392.0
aF-394.0
aF-408.0
aF-463.0
aF-418.0
aF-341.0
aF-372.0
aF-399.0
aF-101.0
aF-388.0
aF-369.0
aF-465.0
aF-79.0
aF-462.0
aF-371.0
aF-336.0
aF-436.0
aF9.0
aF-384.0
aF-360.0
aF-268.0
aF-435.0
aF-443.0
aF-374.0
aF-386.0
aF76.0
aF-397.0
aF-390.0
aF-358.0
aF-321.0
aF-430.0
aF-404.0
aF-108.0
aF-364.0
aF-340.0
aF-433.0
aF-409.0
aF-304.0
aF-357.0
aF-154.0
aF-195.0
aF-368.0
aF-403.0
aF-347.0
aF-28.0
aF-395.0
aF-420.0
aF-462.0
aF66.0
aF-385.0
aF-427.0
aF-425.0
aF62.0
aF-348.0
aF-289.0
aF-115.0
aF-484.0
aF-358.0
aF-431.0
aF-437.0
aF-435.0
aF-481.0
aF-376.0
aF-420.0
aF-444.0
aF-399.0
aF-466.0
aF-383.0
aF-271.0
aF-432.0
aF41.0
aF-456.0
aF-372.0
aF-409.0
aF-331.0
aF-48.0
aF-439.0
aF-241.0
aF-461.0
aF-346.0
aF-433.0
aF445.0
aF-387.0
aF-341.0
aF-466.0
aF-473.0
aF-317.0
aF-452.0
aF-465.0
aF-406.0
aF-377.0
aF-441.0
aF-351.0
aF-440.0
aF-377.0
aF-436.0
aF-429.0
asS'test_scores'
p3
(lp4
F-32.0
aF-368.0
aF-388.0
aF463.0
aF-464.0
aF-426.0
aF-142.0
aF-395.0
aF-469.0
aF-322.0
aF-252.0
aF-481.0
aF-365.0
aF-428.0
aF-419.0
asS'behavior_count'
p5
(dp6
I1
(dp7
S'FleeBehavior'
p8
(lp9
I10
aI9
aI2
aI2
aI1
aI1
aI1
aI1
aI1
aI1
aI0
aI21
aI0
aI0
aI1
aI1
aI1
aI0
aI1
aI0
aI17
aI33
aI37
aI20
aI17
aI12
aI22
aI62
aI70
aI4
aI0
aI5
aI37
aI27
aI21
aI76
aI68
aI40
aI19
aI37
aI50
aI15
aI55
aI68
aI26
aI30
aI38
aI71
aI10
aI29
aI20
aI52
aI26
aI34
aI32
aI93
aI13
aI35
aI18
aI21
aI60
aI20
aI14
aI23
aI19
aI26
aI18
aI13
aI38
aI30
aI29
aI85
aI38
aI85
aI25
aI29
aI29
aI66
aI111
aI19
aI63
aI19
aI34
aI24
aI102
aI9
aI35
aI5
aI2
aI2
aI0
aI2
aI0
aI1
aI2
aI0
aI1
aI0
aI0
aI0
aI0
aI0
aI0
aI0
aI0
aI0
aI0
aI0
aI0
aI0
aI0
aI0
aI0
aI0
aI0
asS'PursueBehavior'
p10
(lp11
I5
aI21
aI11
aI21
aI32
aI38
aI23
aI28
aI40
aI40
aI19
aI58
aI17
aI27
aI13
aI98
aI11
aI29
aI42
aI15
aI110
aI1
aI13
aI54
aI7
aI1
aI2
aI10
aI41
aI3
aI4
aI1
aI8
aI4
aI1
aI20
aI5
aI0
aI5
aI2
aI2
aI13
aI38
aI18
aI1
aI4
aI0
aI34
aI0
aI0
aI0
aI4
aI0
aI1
aI1
aI26
aI0
aI0
aI1
aI1
aI4
aI2
aI2
aI1
aI2
aI0
aI1
aI0
aI0
aI3
aI1
aI4
aI1
aI7
aI0
aI2
aI1
aI3
aI6
aI0
aI2
aI1
aI0
aI0
aI8
aI2
aI1
aI2
aI2
aI1
aI0
aI1
aI2
aI1
aI0
aI3
aI0
aI4
aI0
aI1
aI0
aI0
aI0
aI0
aI0
aI0
aI0
aI0
aI0
aI0
aI0
aI0
aI0
aI0
aI0
asS'SeekBehavior'
p12
(lp13
I3
aI72
aI33
aI0
aI1
aI0
aI0
aI0
aI1
aI1
aI1
aI23
aI1
aI2
aI1
aI10
aI1
aI2
aI4
aI2
aI5
aI0
aI10
aI15
aI1
aI1
aI1
aI4
aI14
aI21
aI46
aI22
aI16
aI0
aI3
aI13
aI2
aI1
aI0
aI1
aI3
aI0
aI1
aI20
aI2
aI0
aI0
aI4
aI26
aI2
aI2
aI49
aI10
aI2
aI2
aI10
aI15
aI24
aI47
aI3
aI15
aI0
aI1
aI1
aI1
aI1
aI1
aI1
aI2
aI4
aI4
aI3
aI3
aI7
aI1
aI1
aI0
aI3
aI11
aI1
aI6
aI1
aI3
aI0
aI36
aI17
aI16
aI20
aI10
aI55
aI13
aI12
aI24
aI45
aI30
aI59
aI10
aI34
aI17
aI9
aI63
aI49
aI49
aI318
aI25
aI27
aI112
aI35
aI20
aI72
aI92
aI12
aI55
aI9
aI29
assI2
(dp14
S'FleeBehavior'
p15
(lp16
I11
aI52
aI3
aI21
aI34
aI30
aI4
aI25
aI7
aI4
aI0
aI6
aI8
aI25
aI3
aI17
aI4
aI16
aI11
aI16
aI53
aI20
aI46
aI56
aI8
aI1
aI7
aI22
aI33
aI12
aI41
aI24
aI56
aI19
aI23
aI86
aI18
aI33
aI10
aI31
aI38
aI26
aI29
aI80
aI21
aI0
aI2
aI18
aI13
aI23
aI6
aI58
aI11
aI29
aI10
aI44
aI15
aI49
aI62
aI8
aI64
aI21
aI17
aI25
aI20
aI23
aI19
aI13
aI38
aI32
aI33
aI88
aI40
aI92
aI26
aI30
aI28
aI50
aI108
aI18
aI55
aI14
aI21
aI23
aI107
aI4
aI6
aI1
aI0
aI7
aI2
aI3
aI4
aI12
aI2
aI3
aI0
aI5
aI0
aI0
aI1
aI0
aI0
aI43
aI0
aI0
aI1
aI0
aI1
aI2
aI3
aI2
aI1
aI0
aI0
asS'PursueBehavior'
p17
(lp18
I3
aI22
aI3
aI0
aI0
aI2
aI2
aI0
aI1
aI3
aI1
aI7
aI5
aI3
aI11
aI52
aI0
aI9
aI4
aI0
aI28
aI13
aI13
aI30
aI17
aI13
aI15
aI52
aI58
aI15
aI8
aI2
aI2
aI12
aI2
aI7
aI55
aI6
aI14
aI9
aI13
aI1
aI29
aI23
aI3
aI1
aI2
aI11
aI17
aI5
aI16
aI7
aI24
aI7
aI24
aI51
aI5
aI2
aI1
aI17
aI15
aI0
aI0
aI0
aI1
aI1
aI1
aI1
aI1
aI3
aI0
aI2
aI0
aI1
aI0
aI1
aI2
aI18
aI15
aI2
aI15
aI6
aI16
aI1
aI13
aI14
aI26
aI22
aI13
aI46
aI8
aI11
aI21
aI28
aI23
aI51
aI10
aI28
aI11
aI5
aI5
aI23
aI32
aI74
aI9
aI14
aI52
aI12
aI9
aI26
aI48
aI0
aI19
aI1
aI25
asS'SeekBehavior'
p19
(lp20
I4
aI28
aI40
aI2
aI0
aI6
aI18
aI3
aI34
aI35
aI18
aI89
aI5
aI1
aI1
aI40
aI9
aI6
aI31
aI1
aI50
aI1
aI1
aI3
aI0
aI0
aI3
aI2
aI34
aI1
aI1
aI2
aI3
aI0
aI0
aI16
aI2
aI2
aI0
aI0
aI4
aI1
aI36
aI2
aI5
aI33
aI33
aI80
aI6
aI3
aI0
aI40
aI1
aI1
aI1
aI34
aI8
aI8
aI3
aI0
aI0
aI1
aI0
aI0
aI1
aI3
aI0
aI0
aI0
aI2
aI1
aI1
aI2
aI6
aI0
aI1
aI0
aI4
aI5
aI0
aI1
aI1
aI0
aI0
aI26
aI10
aI19
aI3
aI1
aI4
aI2
aI1
aI1
aI7
aI6
aI8
aI1
aI5
aI5
aI5
aI56
aI25
aI17
aI201
aI16
aI13
aI59
aI23
aI10
aI44
aI41
aI10
aI35
aI8
aI4
assI3
(dp21
S'FleeBehavior'
p22
(lp23
I11
aI64
aI4
aI1
aI2
aI2
aI1
aI0
aI4
aI35
aI18
aI61
aI8
aI28
aI14
aI68
aI0
aI0
aI4
aI0
aI2
aI1
aI2
aI16
aI0
aI0
aI1
aI1
aI8
aI1
aI1
aI1
aI51
aI12
aI2
aI39
aI37
aI2
aI0
aI0
aI1
aI3
aI34
aI2
aI1
aI4
aI36
aI72
aI34
aI22
aI15
aI42
aI1
aI1
aI1
aI7
aI2
aI2
aI18
aI20
aI73
aI21
aI15
aI21
aI19
aI25
aI17
aI13
aI38
aI35
aI32
aI77
aI35
aI91
aI22
aI25
aI26
aI64
aI113
aI18
aI54
aI0
aI1
aI1
aI46
aI2
aI2
aI1
aI0
aI3
aI1
aI1
aI0
aI0
aI3
aI4
aI0
aI0
aI0
aI1
aI3
aI0
aI0
aI45
aI0
aI0
aI12
aI0
aI0
aI0
aI0
aI0
aI0
aI0
aI0
asS'PursueBehavior'
p24
(lp25
I4
aI20
aI2
aI1
aI0
aI2
aI0
aI0
aI0
aI1
aI1
aI15
aI8
aI1
aI1
aI10
aI7
aI27
aI37
aI17
aI85
aI31
aI55
aI67
aI8
aI13
aI24
aI73
aI67
aI26
aI44
aI21
aI6
aI11
aI7
aI9
aI15
aI2
aI2
aI1
aI16
aI0
aI7
aI42
aI3
aI1
aI1
aI10
aI1
aI3
aI0
aI3
aI4
aI1
aI0
aI8
aI2
aI1
aI2
aI0
aI2
aI0
aI1
aI1
aI1
aI0
aI0
aI1
aI0
aI0
aI2
aI5
aI1
aI5
aI1
aI0
aI0
aI0
aI2
aI1
aI6
aI18
aI32
aI21
aI95
aI26
aI46
aI25
aI12
aI53
aI11
aI13
aI26
aI46
aI27
aI52
aI11
aI36
aI15
aI8
aI58
aI46
aI48
aI262
aI25
aI27
aI97
aI35
aI19
aI71
aI91
aI11
aI54
aI9
aI29
asS'SeekBehavior'
p26
(lp27
I2
aI18
aI40
aI21
aI32
aI34
aI23
aI28
aI38
aI6
aI0
aI26
aI2
aI0
aI0
aI31
aI5
aI4
aI5
aI0
aI44
aI2
aI3
aI6
aI17
aI1
aI0
aI2
aI50
aI1
aI5
aI6
aI4
aI8
aI16
aI61
aI23
aI37
aI22
aI38
aI38
aI25
aI53
aI61
aI25
aI29
aI0
aI27
aI0
aI6
aI7
aI59
aI31
aI35
aI34
aI113
aI24
aI56
aI46
aI5
aI4
aI0
aI1
aI3
aI1
aI2
aI3
aI0
aI1
aI1
aI0
aI9
aI6
aI3
aI3
aI7
aI4
aI8
aI13
aI1
aI11
aI3
aI3
aI2
aI4
aI0
aI3
aI0
aI2
aI1
aI0
aI1
aI0
aI1
aI1
aI6
aI0
aI2
aI1
aI1
aI1
aI2
aI1
aI11
aI0
aI0
aI3
aI0
aI0
aI1
aI1
aI0
aI1
aI0
aI0
assI4
(dp28
S'FleeBehavior'
p29
(lp30
I10
aI23
aI44
aI17
aI1
aI1
aI0
aI0
aI2
aI0
aI1
aI36
aI1
aI1
aI1
aI9
aI1
aI2
aI0
aI0
aI5
aI1
aI2
aI3
aI1
aI0
aI0
aI0
aI8
aI2
aI1
aI1
aI13
aI28
aI18
aI92
aI64
aI20
aI19
aI38
aI55
aI26
aI88
aI77
aI1
aI1
aI1
aI31
aI1
aI1
aI2
aI14
aI0
aI2
aI2
aI11
aI0
aI7
aI2
aI1
aI3
aI0
aI1
aI2
aI3
aI15
aI3
aI0
aI3
aI14
aI2
aI36
aI30
aI29
aI24
aI30
aI28
aI61
aI74
aI17
aI67
aI20
aI34
aI19
aI58
aI28
aI46
aI23
aI13
aI52
aI12
aI15
aI25
aI44
aI28
aI56
aI9
aI36
aI15
aI8
aI62
aI48
aI48
aI317
aI24
aI27
aI112
aI35
aI19
aI72
aI92
aI11
aI55
aI9
aI29
asS'PursueBehavior'
p31
(lp32
I3
aI27
aI2
aI5
aI32
aI37
aI22
aI26
aI37
aI41
aI18
aI64
aI17
aI27
aI14
aI94
aI10
aI28
aI45
aI17
aI105
aI1
aI3
aI2
aI0
aI0
aI1
aI5
aI43
aI1
aI0
aI0
aI1
aI0
aI3
aI16
aI7
aI6
aI2
aI0
aI0
aI0
aI4
aI3
aI0
aI1
aI2
aI9
aI2
aI2
aI2
aI29
aI2
aI2
aI5
aI29
aI1
aI2
aI18
aI1
aI18
aI16
aI16
aI20
aI18
aI10
aI16
aI14
aI36
aI20
aI32
aI53
aI10
aI67
aI2
aI2
aI1
aI3
aI42
aI1
aI1
aI1
aI1
aI2
aI53
aI0
aI1
aI3
aI0
aI3
aI0
aI0
aI0
aI2
aI1
aI3
aI1
aI1
aI1
aI1
aI0
aI0
aI0
aI1
aI0
aI0
aI0
aI0
aI0
aI0
aI0
aI0
aI0
aI0
aI0
asS'SeekBehavior'
p33
(lp34
I4
aI52
aI0
aI1
aI1
aI0
aI1
aI2
aI2
aI1
aI0
aI1
aI0
aI1
aI0
aI6
aI1
aI1
aI1
aI0
aI21
aI32
aI55
aI83
aI24
aI13
aI23
aI71
aI74
aI24
aI49
aI27
aI47
aI2
aI3
aI1
aI4
aI15
aI2
aI1
aI0
aI1
aI2
aI25
aI27
aI32
aI34
aI69
aI32
aI28
aI18
aI61
aI33
aI33
aI28
aI88
aI27
aI50
aI46
aI22
aI58
aI5
aI0
aI3
aI0
aI1
aI1
aI0
aI0
aI2
aI0
aI2
aI2
aI3
aI0
aI0
aI1
aI7
aI12
aI2
aI3
aI0
aI1
aI2
aI34
aI0
aI4
aI0
aI0
aI2
aI0
aI0
aI1
aI1
aI2
aI2
aI0
aI1
aI0
aI0
aI0
aI0
aI0
aI0
aI0
aI0
aI0
aI0
aI0
aI0
aI0
aI0
aI0
aI0
aI0
asss.