(dp0
S'learn_scores'
p1
(lp2
F-467.0
aF-465.0
aF-467.0
aF-374.0
aF-392.0
aF-424.0
aF-417.0
aF-361.0
aF-406.0
aF-387.0
aF-461.0
aF-293.0
aF-428.0
aF-408.0
aF-58.0
aF-378.0
aF555.0
aF30.0
aF-416.0
aF-422.0
aF-215.0
aF-402.0
aF204.0
aF-223.0
aF-262.0
aF-285.0
aF-370.0
aF-361.0
aF-387.0
aF-484.0
aF-235.0
aF-116.0
aF-413.0
aF-466.0
aF-331.0
aF242.0
aF-378.0
aF-457.0
aF-426.0
aF-431.0
aF-443.0
aF-456.0
aF-408.0
aF-395.0
aF-313.0
aF-399.0
aF-396.0
aF-420.0
aF-318.0
aF-453.0
aF-386.0
aF573.0
aF-393.0
aF-281.0
aF-222.0
aF-404.0
aF-188.0
aF-22.0
aF-388.0
aF-383.0
aF-147.0
aF122.0
aF-434.0
aF-458.0
aF-368.0
aF221.0
aF-258.0
aF-437.0
aF-317.0
aF-409.0
aF-5.0
aF-388.0
aF-360.0
aF-370.0
aF-454.0
aF-148.0
aF38.0
aF-355.0
aF-369.0
aF-308.0
aF-260.0
aF-414.0
aF-438.0
aF-418.0
aF-442.0
aF178.0
aF-440.0
aF-76.0
aF-449.0
aF-414.0
aF-378.0
aF-424.0
aF-374.0
aF-449.0
aF-331.0
aF-374.0
aF-296.0
aF-259.0
aF-398.0
aF-394.0
asS'test_scores'
p3
(lp4
F-413.0
aF-333.0
aF-382.0
aF-428.0
aF-434.0
aF-342.0
aF-453.0
aF-337.0
aF-457.0
aF-447.0
aF7.0
aF-402.0
aF-413.0
aF-401.0
aF-165.0
asS'behavior_count'
p5
(dp6
I1
(dp7
S'FleeBehavior'
p8
(lp9
I12
aI16
aI24
aI37
aI5
aI1
aI0
aI1
aI3
aI3
aI19
aI44
aI25
aI17
aI72
aI6
aI50
aI40
aI2
aI0
aI8
aI1
aI23
aI3
aI10
aI54
aI1
aI0
aI1
aI2
aI1
aI10
aI1
aI0
aI2
aI4
aI5
aI1
aI0
aI0
aI1
aI0
aI2
aI0
aI1
aI3
aI3
aI0
aI1
aI1
aI0
aI6
aI1
aI1
aI6
aI0
aI4
aI1
aI3
aI0
aI6
aI6
aI0
aI2
aI0
aI4
aI2
aI0
aI1
aI1
aI40
aI1
aI1
aI0
aI1
aI9
aI19
aI1
aI0
aI5
aI1
aI2
aI0
aI0
aI1
aI30
aI0
aI2
aI1
aI4
aI0
aI0
aI0
aI0
aI2
aI1
aI1
aI2
aI1
aI1
aI0
aI0
aI0
aI0
aI0
aI0
aI0
aI0
aI0
aI0
aI0
aI0
aI0
aI0
aI0
asS'PursueBehavior'
p10
(lp11
I12
aI0
aI3
aI6
aI0
aI0
aI1
aI1
aI1
aI8
aI1
aI2
aI1
aI0
aI28
aI51
aI86
aI9
aI22
aI31
aI57
aI22
aI39
aI68
aI41
aI13
aI38
aI30
aI34
aI22
aI69
aI130
aI22
aI17
aI49
aI34
aI28
aI16
aI25
aI22
aI13
aI27
aI14
aI25
aI61
aI27
aI23
aI49
aI35
aI22
aI27
aI133
aI21
aI47
aI114
aI24
aI64
aI44
aI35
aI44
aI93
aI66
aI24
aI27
aI34
aI110
aI46
aI26
aI46
aI29
aI52
aI28
aI28
aI40
aI22
aI38
aI63
aI45
aI27
aI36
aI4
aI6
aI4
aI3
aI0
aI11
aI6
aI3
aI4
aI2
aI1
aI2
aI3
aI1
aI7
aI5
aI4
aI2
aI7
aI3
aI0
aI1
aI3
aI1
aI0
aI0
aI2
aI1
aI4
aI0
aI18
aI0
aI1
aI0
aI11
asS'SeekBehavior'
p12
(lp13
I3
aI0
aI1
aI12
aI18
aI33
aI16
aI39
aI33
aI27
aI2
aI8
aI3
aI1
aI19
aI2
aI39
aI32
aI2
aI1
aI40
aI0
aI14
aI32
aI2
aI38
aI2
aI1
aI3
aI1
aI5
aI6
aI0
aI0
aI1
aI11
aI25
aI0
aI1
aI0
aI0
aI0
aI2
aI1
aI1
aI0
aI0
aI1
aI2
aI1
aI0
aI68
aI1
aI4
aI43
aI1
aI41
aI37
aI0
aI0
aI9
aI37
aI1
aI0
aI4
aI26
aI1
aI1
aI0
aI0
aI3
aI0
aI2
aI1
aI2
aI12
aI31
aI0
aI3
aI28
aI46
aI26
aI25
aI26
aI22
aI61
aI24
aI52
aI14
aI29
aI37
aI22
aI32
aI28
aI42
aI38
aI41
aI56
aI40
aI20
aI24
aI43
aI30
aI18
aI25
aI33
aI22
aI37
aI14
aI18
aI95
aI22
aI32
aI32
aI155
assI2
(dp14
S'FleeBehavior'
p15
(lp16
I12
aI9
aI7
aI17
aI4
aI26
aI16
aI32
aI27
aI10
aI19
aI42
aI0
aI0
aI32
aI6
aI57
aI48
aI1
aI2
aI22
aI0
aI31
aI40
aI4
aI36
aI1
aI2
aI0
aI0
aI3
aI4
aI2
aI0
aI1
aI5
aI24
aI0
aI1
aI0
aI1
aI0
aI0
aI0
aI2
aI0
aI0
aI1
aI1
aI0
aI1
aI79
aI0
aI1
aI41
aI1
aI33
aI36
aI1
aI2
aI3
aI35
aI0
aI2
aI0
aI54
aI38
aI1
aI0
aI2
aI38
aI2
aI1
aI0
aI2
aI9
aI3
aI0
aI0
aI1
aI2
aI1
aI0
aI0
aI0
aI1
aI1
aI22
aI0
aI3
aI0
aI1
aI2
aI1
aI3
aI1
aI1
aI3
aI0
aI0
aI0
aI0
aI0
aI0
aI0
aI0
aI0
aI0
aI0
aI0
aI0
aI0
aI0
aI0
aI0
asS'PursueBehavior'
p17
(lp18
I3
aI0
aI1
aI1
aI1
aI2
aI1
aI0
aI1
aI7
aI1
aI5
aI26
aI18
aI70
aI7
aI86
aI14
aI23
aI3
aI17
aI1
aI8
aI2
aI1
aI5
aI1
aI0
aI0
aI1
aI3
aI8
aI1
aI0
aI2
aI2
aI1
aI3
aI7
aI17
aI12
aI25
aI16
aI23
aI57
aI29
aI24
aI46
aI36
aI23
aI25
aI118
aI23
aI47
aI107
aI23
aI67
aI41
aI30
aI38
aI99
aI55
aI1
aI1
aI0
aI28
aI6
aI23
aI41
aI13
aI6
aI2
aI3
aI2
aI1
aI13
aI52
aI5
aI0
aI17
aI2
aI0
aI1
aI1
aI1
aI39
aI1
aI4
aI1
aI1
aI2
aI0
aI0
aI1
aI1
aI2
aI3
aI3
aI6
aI2
aI0
aI0
aI0
aI0
aI0
aI0
aI0
aI0
aI0
aI0
aI0
aI0
aI0
aI0
aI0
asS'SeekBehavior'
p19
(lp20
I12
aI7
aI20
aI37
aI18
aI6
aI0
aI9
aI9
aI21
aI2
aI7
aI2
aI0
aI17
aI46
aI32
aI19
aI2
aI27
aI66
aI21
aI37
aI61
aI48
aI64
aI39
aI29
aI38
aI24
aI69
aI134
aI20
aI16
aI48
aI42
aI33
aI14
aI18
aI5
aI1
aI2
aI2
aI2
aI4
aI0
aI2
aI3
aI1
aI1
aI1
aI10
aI0
aI4
aI15
aI1
aI9
aI5
aI7
aI4
aI6
aI18
aI24
aI26
aI38
aI58
aI5
aI3
aI6
aI15
aI51
aI25
aI27
aI38
aI21
aI37
aI57
aI40
aI30
aI50
aI47
aI33
aI28
aI27
aI22
aI62
aI28
aI31
aI18
aI31
aI36
aI23
aI33
aI27
aI47
aI41
aI42
aI53
aI42
aI22
aI24
aI44
aI33
aI19
aI25
aI33
aI23
aI38
aI17
aI18
aI113
aI22
aI33
aI32
aI166
assI3
(dp21
S'FleeBehavior'
p22
(lp23
I8
aI0
aI2
aI1
aI1
aI0
aI1
aI1
aI2
aI2
aI0
aI2
aI0
aI0
aI22
aI8
aI107
aI5
aI1
aI3
aI6
aI1
aI21
aI2
aI2
aI7
aI2
aI4
aI1
aI1
aI2
aI2
aI1
aI1
aI1
aI8
aI7
aI0
aI0
aI0
aI4
aI1
aI1
aI1
aI3
aI14
aI16
aI26
aI28
aI21
aI13
aI44
aI12
aI38
aI55
aI9
aI52
aI31
aI0
aI0
aI42
aI14
aI0
aI1
aI0
aI25
aI22
aI9
aI17
aI21
aI54
aI22
aI24
aI33
aI23
aI42
aI102
aI42
aI24
aI64
aI46
aI30
aI25
aI23
aI17
aI89
aI29
aI31
aI16
aI33
aI34
aI22
aI33
aI28
aI46
aI43
aI43
aI58
aI40
aI24
aI23
aI35
aI29
aI16
aI25
aI32
aI21
aI37
aI17
aI15
aI67
aI22
aI31
aI30
aI154
asS'PursueBehavior'
p24
(lp25
I7
aI15
aI24
aI42
aI1
aI0
aI2
aI3
aI0
aI7
aI0
aI3
aI0
aI0
aI30
aI44
aI39
aI19
aI0
aI2
aI42
aI1
aI14
aI3
aI1
aI9
aI37
aI27
aI33
aI24
aI69
aI133
aI21
aI14
aI47
aI39
aI50
aI17
aI25
aI21
aI9
aI25
aI17
aI22
aI59
aI15
aI8
aI21
aI7
aI3
aI12
aI136
aI11
aI11
aI65
aI16
aI15
aI12
aI36
aI43
aI61
aI47
aI24
aI27
aI36
aI103
aI27
aI17
aI28
aI7
aI17
aI5
aI7
aI2
aI1
aI6
aI3
aI1
aI5
aI2
aI5
aI4
aI1
aI2
aI6
aI11
aI0
aI2
aI2
aI1
aI2
aI1
aI2
aI1
aI2
aI0
aI2
aI1
aI6
aI0
aI1
aI9
aI4
aI3
aI0
aI0
aI2
aI0
aI0
aI3
aI6
aI0
aI2
aI2
aI12
asS'SeekBehavior'
p26
(lp27
I12
aI0
aI2
aI11
aI21
aI34
aI14
aI37
aI34
aI29
aI22
aI49
aI28
aI18
aI67
aI6
aI29
aI56
aI25
aI27
aI57
aI20
aI41
aI98
aI50
aI89
aI2
aI0
aI4
aI0
aI4
aI11
aI1
aI1
aI3
aI2
aI1
aI0
aI1
aI0
aI1
aI0
aI0
aI2
aI1
aI0
aI2
aI3
aI3
aI0
aI1
aI27
aI0
aI3
aI42
aI0
aI41
aI39
aI2
aI1
aI4
aI47
aI1
aI0
aI2
aI12
aI0
aI1
aI2
aI2
aI24
aI1
aI0
aI5
aI0
aI11
aI7
aI2
aI1
aI2
aI0
aI0
aI3
aI3
aI0
aI2
aI1
aI23
aI1
aI0
aI2
aI1
aI0
aI0
aI3
aI1
aI1
aI0
aI2
aI0
aI0
aI0
aI0
aI0
aI0
aI0
aI0
aI0
aI0
aI0
aI40
aI0
aI0
aI0
aI0
assI4
(dp28
S'FleeBehavior'
p29
(lp30
I13
aI0
aI0
aI2
aI1
aI1
aI1
aI2
aI1
aI2
aI0
aI6
aI2
aI1
aI18
aI4
aI52
aI5
aI1
aI0
aI3
aI0
aI4
aI39
aI3
aI37
aI2
aI2
aI3
aI1
aI1
aI18
aI0
aI1
aI1
aI1
aI0
aI3
aI0
aI0
aI0
aI1
aI1
aI1
aI3
aI1
aI2
aI0
aI1
aI2
aI0
aI5
aI1
aI1
aI6
aI1
aI4
aI3
aI0
aI0
aI2
aI3
aI0
aI2
aI2
aI5
aI4
aI3
aI2
aI1
aI12
aI0
aI2
aI1
aI1
aI1
aI16
aI2
aI2
aI5
aI36
aI10
aI0
aI1
aI1
aI32
aI1
aI22
aI2
aI3
aI1
aI0
aI2
aI0
aI2
aI2
aI3
aI2
aI2
aI0
aI0
aI0
aI0
aI0
aI0
aI0
aI0
aI0
aI0
aI0
aI0
aI0
aI0
aI0
aI0
asS'PursueBehavior'
p31
(lp32
I13
aI15
aI27
aI49
aI22
aI31
aI16
aI39
aI32
aI36
aI20
aI47
aI25
aI14
aI82
aI46
aI70
aI18
aI23
aI32
aI96
aI19
aI51
aI62
aI49
aI64
aI36
aI27
aI34
aI22
aI65
aI56
aI21
aI14
aI48
aI38
aI58
aI14
aI25
aI18
aI12
aI25
aI17
aI24
aI58
aI28
aI24
aI47
aI37
aI20
aI25
aI167
aI22
aI50
aI114
aI21
aI57
aI13
aI2
aI6
aI5
aI6
aI1
aI2
aI7
aI82
aI19
aI24
aI42
aI16
aI53
aI28
aI28
aI38
aI22
aI56
aI95
aI38
aI27
aI62
aI14
aI22
aI29
aI26
aI20
aI68
aI26
aI8
aI16
aI31
aI35
aI23
aI31
aI26
aI46
aI40
aI43
aI56
aI43
aI24
aI24
aI44
aI32
aI18
aI25
aI32
aI23
aI37
aI17
aI17
aI113
aI22
aI33
aI31
aI166
asS'SeekBehavior'
p33
(lp34
I1
aI0
aI0
aI3
aI0
aI2
aI0
aI0
aI3
aI0
aI2
aI1
aI1
aI3
aI18
aI8
aI53
aI57
aI2
aI0
aI6
aI3
aI21
aI2
aI1
aI4
aI2
aI2
aI0
aI2
aI9
aI72
aI2
aI1
aI2
aI9
aI0
aI0
aI1
aI3
aI1
aI0
aI0
aI0
aI2
aI0
aI0
aI3
aI0
aI1
aI1
aI35
aI0
aI1
aI42
aI3
aI47
aI66
aI36
aI38
aI100
aI99
aI23
aI24
aI29
aI53
aI25
aI0
aI3
aI13
aI30
aI0
aI0
aI1
aI1
aI1
aI1
aI5
aI0
aI1
aI1
aI2
aI0
aI1
aI1
aI2
aI3
aI26
aI1
aI0
aI2
aI1
aI2
aI3
aI3
aI2
aI0
aI1
aI3
aI0
aI0
aI0
aI0
aI0
aI0
aI0
aI0
aI0
aI0
aI0
aI0
aI0
aI0
aI0
aI0
asss.