(dp0
S'learn_scores'
p1
(lp2
F-401.0
aF-374.0
aF-289.0
aF-436.0
aF-403.0
aF-294.0
aF-301.0
aF51.0
aF-349.0
aF-336.0
aF-481.0
aF-393.0
aF-437.0
aF-400.0
aF-394.0
aF-374.0
aF252.0
aF-360.0
aF-84.0
aF-410.0
aF-323.0
aF-363.0
aF-433.0
aF-446.0
aF-405.0
aF-373.0
aF-483.0
aF-283.0
aF-449.0
aF-312.0
aF-32.0
aF-251.0
aF-432.0
aF-451.0
aF-155.0
aF-389.0
aF-455.0
aF-363.0
aF-450.0
aF-366.0
aF-316.0
aF-372.0
aF-313.0
aF-405.0
aF-451.0
aF-183.0
aF-397.0
aF-461.0
aF-383.0
aF-402.0
aF-415.0
aF-376.0
aF-248.0
aF-392.0
aF12.0
aF-899.0
aF-402.0
aF-308.0
aF-450.0
aF55.0
aF-428.0
aF-368.0
aF-374.0
aF-441.0
aF-438.0
aF-463.0
aF-350.0
aF-317.0
aF-460.0
aF-384.0
aF284.0
aF456.0
aF-457.0
aF-409.0
aF1138.0
aF-168.0
aF-321.0
aF-413.0
aF-432.0
aF-447.0
aF-303.0
aF95.0
aF-438.0
aF-384.0
aF-406.0
aF165.0
aF-485.0
aF-258.0
aF-347.0
aF-442.0
aF-172.0
aF-356.0
aF-407.0
aF-366.0
aF-437.0
aF-340.0
aF-405.0
aF-415.0
aF-450.0
aF-374.0
asS'test_scores'
p3
(lp4
F-332.0
aF-452.0
aF-438.0
aF-465.0
aF-414.0
aF-366.0
aF-257.0
aF-291.0
aF-328.0
aF-392.0
aF-334.0
aF130.0
aF-440.0
aF-393.0
aF-395.0
asS'behavior_count'
p5
(dp6
I1
(dp7
S'FleeBehavior'
p8
(lp9
I15
aI6
aI19
aI24
aI5
aI36
aI2
aI36
aI0
aI1
aI0
aI2
aI0
aI1
aI2
aI0
aI20
aI15
aI44
aI46
aI29
aI15
aI30
aI0
aI1
aI10
aI18
aI60
aI16
aI88
aI69
aI28
aI1
aI1
aI16
aI4
aI14
aI16
aI15
aI34
aI52
aI28
aI49
aI22
aI10
aI92
aI13
aI1
aI1
aI0
aI0
aI0
aI0
aI1
aI10
aI0
aI0
aI3
aI1
aI5
aI2
aI2
aI1
aI1
aI0
aI1
aI1
aI7
aI0
aI11
aI48
aI62
aI7
aI17
aI93
aI68
aI30
aI0
aI1
aI0
aI1
aI18
aI2
aI1
aI1
aI12
aI2
aI1
aI2
aI0
aI3
aI3
aI7
aI33
aI25
aI33
aI9
aI24
aI27
aI49
aI31
aI13
aI19
aI25
aI24
aI37
aI83
aI54
aI38
aI34
aI83
aI190
aI11
aI23
aI25
asS'PursueBehavior'
p10
(lp11
I11
aI1
aI26
aI2
aI19
aI24
aI39
aI24
aI41
aI7
aI1
aI5
aI1
aI3
aI3
aI0
aI4
aI1
aI8
aI2
aI4
aI6
aI3
aI3
aI2
aI3
aI3
aI3
aI2
aI11
aI7
aI4
aI0
aI4
aI12
aI26
aI2
aI18
aI4
aI9
aI5
aI4
aI3
aI2
aI1
aI20
aI6
aI1
aI2
aI1
aI1
aI1
aI7
aI2
aI9
aI3
aI1
aI8
aI0
aI6
aI0
aI1
aI2
aI2
aI0
aI1
aI1
aI3
aI1
aI3
aI23
aI21
aI8
aI3
aI127
aI5
aI15
aI4
aI0
aI1
aI2
aI6
aI0
aI1
aI1
aI2
aI1
aI2
aI3
aI2
aI4
aI5
aI8
aI4
aI1
aI6
aI6
aI1
aI3
aI4
aI2
aI0
aI0
aI0
aI1
aI0
aI5
aI8
aI1
aI9
aI2
aI10
aI0
aI0
aI0
asS'SeekBehavior'
p12
(lp13
I6
aI17
aI35
aI0
aI0
aI5
aI11
aI90
aI9
aI49
aI20
aI27
aI27
aI17
aI30
aI24
aI64
aI34
aI33
aI2
aI1
aI2
aI1
aI13
aI22
aI50
aI3
aI0
aI1
aI4
aI46
aI49
aI11
aI17
aI57
aI9
aI0
aI0
aI2
aI4
aI0
aI0
aI2
aI2
aI1
aI42
aI9
aI10
aI20
aI22
aI14
aI26
aI41
aI29
aI119
aI26
aI22
aI48
aI10
aI115
aI37
aI46
aI31
aI18
aI29
aI11
aI39
aI88
aI20
aI21
aI56
aI31
aI2
aI0
aI23
aI26
aI6
aI20
aI41
aI17
aI30
aI91
aI27
aI33
aI25
aI61
aI22
aI85
aI62
aI11
aI76
aI39
aI12
aI20
aI2
aI1
aI1
aI0
aI1
aI1
aI0
aI0
aI0
aI0
aI0
aI0
aI0
aI0
aI0
aI0
aI0
aI0
aI0
aI0
aI0
assI2
(dp14
S'FleeBehavior'
p15
(lp16
I13
aI22
aI53
aI0
aI0
aI1
aI2
aI54
aI7
aI6
aI1
aI1
aI0
aI0
aI1
aI1
aI14
aI0
aI2
aI3
aI0
aI1
aI0
aI3
aI0
aI2
aI3
aI2
aI0
aI5
aI5
aI34
aI10
aI20
aI58
aI37
aI1
aI0
aI1
aI1
aI2
aI10
aI27
aI12
aI3
aI65
aI2
aI1
aI0
aI2
aI1
aI0
aI0
aI1
aI5
aI4
aI2
aI0
aI0
aI22
aI0
aI1
aI1
aI0
aI2
aI0
aI5
aI26
aI1
aI1
aI36
aI17
aI0
aI0
aI72
aI38
aI22
aI1
aI3
aI0
aI1
aI16
aI0
aI1
aI1
aI31
aI1
aI6
aI0
aI0
aI5
aI2
aI2
aI1
aI2
aI0
aI1
aI2
aI0
aI3
aI0
aI0
aI0
aI0
aI0
aI0
aI0
aI0
aI0
aI0
aI0
aI25
aI0
aI0
aI0
asS'PursueBehavior'
p17
(lp18
I7
aI1
aI12
aI26
aI23
aI60
aI45
aI41
aI40
aI44
aI19
aI32
aI25
aI21
aI32
aI23
aI68
aI45
aI11
aI4
aI0
aI1
aI6
aI0
aI1
aI4
aI4
aI14
aI19
aI87
aI13
aI44
aI2
aI1
aI19
aI2
aI15
aI32
aI20
aI45
aI54
aI19
aI26
aI11
aI7
aI84
aI24
aI11
aI23
aI20
aI14
aI25
aI46
aI31
aI126
aI25
aI21
aI57
aI10
aI101
aI38
aI45
aI32
aI21
aI26
aI13
aI35
aI69
aI19
aI34
aI89
aI85
aI16
aI18
aI153
aI51
aI23
aI13
aI25
aI1
aI2
aI20
aI4
aI6
aI15
aI31
aI23
aI80
aI58
aI12
aI71
aI36
aI25
aI55
aI24
aI37
aI13
aI22
aI31
aI50
aI33
aI13
aI19
aI25
aI25
aI37
aI88
aI62
aI39
aI42
aI85
aI121
aI11
aI23
aI25
asS'SeekBehavior'
p19
(lp20
I12
aI1
aI15
aI0
aI1
aI4
aI5
aI55
aI3
aI7
aI1
aI1
aI3
aI0
aI1
aI0
aI6
aI5
aI72
aI43
aI33
aI21
aI27
aI13
aI24
aI57
aI17
aI47
aI0
aI11
aI104
aI3
aI0
aI0
aI8
aI0
aI0
aI2
aI0
aI1
aI1
aI3
aI1
aI3
aI2
aI5
aI2
aI0
aI0
aI0
aI0
aI2
aI2
aI0
aI7
aI0
aI0
aI2
aI0
aI3
aI1
aI2
aI1
aI0
aI1
aI0
aI1
aI2
aI1
aI0
aI2
aI12
aI1
aI2
aI17
aI10
aI6
aI9
aI14
aI16
aI30
aI79
aI25
aI28
aI11
aI13
aI1
aI2
aI9
aI0
aI6
aI9
aI0
aI1
aI2
aI3
aI1
aI1
aI0
aI1
aI0
aI0
aI0
aI0
aI0
aI0
aI0
aI0
aI0
aI0
aI0
aI54
aI0
aI0
aI0
assI3
(dp21
S'FleeBehavior'
p22
(lp23
I7
aI20
aI50
aI23
aI20
aI41
aI12
aI61
aI1
aI2
aI0
aI1
aI0
aI0
aI0
aI0
aI10
aI4
aI9
aI3
aI1
aI0
aI0
aI0
aI3
aI3
aI1
aI2
aI1
aI6
aI25
aI44
aI11
aI20
aI76
aI37
aI16
aI30
aI19
aI43
aI51
aI29
aI48
aI26
aI11
aI122
aI1
aI0
aI1
aI1
aI1
aI1
aI2
aI5
aI49
aI27
aI21
aI54
aI8
aI91
aI35
aI39
aI2
aI0
aI2
aI0
aI8
aI3
aI1
aI1
aI3
aI17
aI0
aI1
aI41
aI48
aI12
aI0
aI2
aI1
aI4
aI39
aI2
aI1
aI3
aI5
aI1
aI5
aI0
aI0
aI1
aI3
aI0
aI2
aI0
aI1
aI1
aI1
aI1
aI3
aI0
aI0
aI0
aI0
aI0
aI0
aI0
aI0
aI0
aI0
aI0
aI24
aI0
aI0
aI0
asS'PursueBehavior'
p24
(lp25
I13
aI4
aI28
aI1
aI2
aI2
aI4
aI42
aI41
aI49
aI5
aI2
aI2
aI0
aI4
aI4
aI21
aI4
aI6
aI1
aI4
aI0
aI1
aI0
aI1
aI2
aI2
aI6
aI4
aI14
aI42
aI8
aI0
aI1
aI3
aI2
aI0
aI3
aI0
aI1
aI1
aI2
aI2
aI0
aI0
aI6
aI0
aI1
aI0
aI2
aI0
aI2
aI0
aI0
aI9
aI1
aI0
aI1
aI1
aI6
aI1
aI1
aI3
aI1
aI1
aI0
aI0
aI2
aI0
aI3
aI28
aI10
aI2
aI1
aI41
aI5
aI2
aI0
aI2
aI0
aI1
aI13
aI1
aI2
aI1
aI11
aI2
aI4
aI3
aI1
aI6
aI0
aI3
aI2
aI1
aI3
aI4
aI2
aI3
aI2
aI0
aI0
aI2
aI0
aI1
aI1
aI6
aI1
aI3
aI0
aI2
aI4
aI1
aI2
aI1
asS'SeekBehavior'
p26
(lp27
I12
aI0
aI1
aI2
aI2
aI22
aI36
aI47
aI7
aI6
aI16
aI31
aI25
aI21
aI30
aI20
aI57
aI42
aI69
aI46
aI28
aI23
aI32
aI16
aI21
aI58
aI21
aI55
aI14
aI83
aI55
aI29
aI1
aI0
aI6
aI0
aI0
aI0
aI1
aI2
aI4
aI1
aI4
aI0
aI1
aI26
aI27
aI11
aI22
aI19
aI14
aI23
aI46
aI27
aI80
aI1
aI1
aI3
aI1
aI28
aI3
aI8
aI29
aI20
aI25
aI13
aI33
aI92
aI20
aI31
aI95
aI87
aI15
aI18
aI160
aI45
aI37
aI23
aI38
aI16
aI28
aI63
aI26
aI31
aI23
aI59
aI22
aI79
aI64
aI11
aI75
aI44
aI24
aI53
aI27
aI36
aI10
aI22
aI27
aI49
aI33
aI13
aI17
aI25
aI24
aI36
aI82
aI61
aI36
aI42
aI82
aI172
aI10
aI21
aI24
assI4
(dp28
S'FleeBehavior'
p29
(lp30
I11
aI11
aI39
aI2
aI1
aI2
aI5
aI63
aI15
aI49
aI20
aI30
aI25
aI20
aI31
aI21
aI55
aI2
aI8
aI2
aI10
aI23
aI29
aI0
aI1
aI5
aI2
aI6
aI16
aI46
aI46
aI27
aI1
aI3
aI36
aI1
aI1
aI1
aI0
aI2
aI1
aI0
aI0
aI1
aI1
aI41
aI0
aI0
aI1
aI0
aI1
aI2
aI1
aI0
aI13
aI1
aI0
aI5
aI1
aI12
aI0
aI1
aI1
aI0
aI1
aI0
aI1
aI3
aI3
aI0
aI27
aI19
aI0
aI0
aI38
aI53
aI43
aI22
aI34
aI17
aI31
aI96
aI20
aI22
aI17
aI70
aI22
aI73
aI49
aI0
aI7
aI5
aI0
aI0
aI0
aI1
aI1
aI2
aI0
aI3
aI0
aI0
aI0
aI0
aI0
aI0
aI0
aI0
aI0
aI0
aI0
aI19
aI0
aI0
aI0
asS'PursueBehavior'
p31
(lp32
I4
aI1
aI23
aI3
aI0
aI9
aI8
aI65
aI16
aI1
aI0
aI2
aI1
aI0
aI0
aI1
aI17
aI2
aI31
aI36
aI22
aI0
aI2
aI2
aI1
aI0
aI0
aI1
aI2
aI49
aI68
aI16
aI0
aI1
aI4
aI2
aI5
aI1
aI1
aI3
aI2
aI2
aI1
aI1
aI1
aI4
aI0
aI0
aI0
aI0
aI2
aI0
aI0
aI0
aI1
aI0
aI1
aI19
aI9
aI98
aI30
aI45
aI33
aI19
aI25
aI12
aI37
aI85
aI16
aI30
aI49
aI45
aI0
aI0
aI55
aI6
aI1
aI1
aI2
aI0
aI0
aI2
aI0
aI0
aI1
aI4
aI3
aI0
aI4
aI1
aI1
aI2
aI0
aI2
aI0
aI1
aI0
aI0
aI1
aI4
aI0
aI0
aI0
aI0
aI0
aI0
aI0
aI0
aI0
aI0
aI0
aI2
aI0
aI0
aI0
asS'SeekBehavior'
p33
(lp34
I16
aI12
aI17
aI21
aI22
aI54
aI38
aI21
aI18
aI7
aI1
aI1
aI1
aI0
aI3
aI2
aI16
aI46
aI45
aI12
aI1
aI0
aI2
aI14
aI23
aI58
aI21
aI56
aI1
aI7
aI8
aI38
aI11
aI17
aI45
aI36
aI10
aI31
aI19
aI41
aI53
aI30
aI53
aI24
aI9
aI109
aI28
aI12
aI22
aI22
aI12
aI24
aI47
aI32
aI124
aI28
aI21
aI34
aI0
aI15
aI8
aI2
aI0
aI2
aI2
aI1
aI2
aI9
aI2
aI5
aI50
aI50
aI17
aI20
aI149
aI39
aI7
aI0
aI6
aI0
aI2
aI17
aI9
aI12
aI9
aI1
aI0
aI15
aI14
aI11
aI74
aI40
aI27
aI55
aI27
aI38
aI14
aI23
aI29
aI47
aI33
aI12
aI18
aI25
aI25
aI37
aI87
aI62
aI38
aI42
aI84
aI179
aI10
aI23
aI25
asss.