(dp0
S'learn_scores'
p1
(lp2
F-443.0
aF-401.0
aF-405.0
aF-275.0
aF-420.0
aF-397.0
aF-436.0
aF82.0
aF-375.0
aF-384.0
aF-381.0
aF-390.0
aF-331.0
aF-342.0
aF-415.0
aF-421.0
aF-456.0
aF-396.0
aF108.0
aF-410.0
aF-370.0
aF-403.0
aF-474.0
aF-243.0
aF-451.0
aF-442.0
aF-426.0
aF-392.0
aF-204.0
aF-302.0
aF-385.0
aF-393.0
aF-412.0
aF-437.0
aF-437.0
aF-286.0
aF-332.0
aF-437.0
aF-342.0
aF-375.0
aF-394.0
aF-35.0
aF-461.0
aF-414.0
aF-393.0
aF-420.0
aF-330.0
aF-451.0
aF-27.0
aF-384.0
aF-435.0
aF-14.0
aF-312.0
aF-322.0
aF-435.0
aF-363.0
aF-386.0
aF-334.0
aF-378.0
aF-343.0
aF526.0
aF-12.0
aF-32.0
aF-412.0
aF-418.0
aF-357.0
aF-418.0
aF-434.0
aF-369.0
aF27.0
aF-462.0
aF-439.0
aF-388.0
aF-228.0
aF-329.0
aF-388.0
aF-393.0
aF-321.0
aF-470.0
aF-380.0
aF28.0
aF-366.0
aF-375.0
aF-350.0
aF-447.0
aF-318.0
aF-459.0
aF-377.0
aF-208.0
aF-368.0
aF-250.0
aF-390.0
aF-391.0
aF-276.0
aF-395.0
aF-468.0
aF-448.0
aF-385.0
aF-367.0
aF-434.0
asS'test_scores'
p3
(lp4
F-379.0
aF-412.0
aF-404.0
aF-475.0
aF-478.0
aF-368.0
aF-391.0
aF-413.0
aF-405.0
aF-466.0
aF-448.0
aF-359.0
aF-225.0
aF-480.0
aF-406.0
asS'behavior_count'
p5
(dp6
I1
(dp7
S'FleeBehavior'
p8
(lp9
I8
aI20
aI21
aI33
aI4
aI5
aI1
aI37
aI14
aI1
aI1
aI0
aI2
aI2
aI1
aI3
aI1
aI1
aI17
aI1
aI2
aI10
aI2
aI2
aI1
aI0
aI3
aI4
aI22
aI24
aI6
aI6
aI1
aI0
aI0
aI2
aI1
aI1
aI2
aI0
aI2
aI40
aI1
aI0
aI0
aI0
aI0
aI1
aI43
aI1
aI1
aI29
aI1
aI3
aI9
aI38
aI32
aI39
aI0
aI1
aI100
aI47
aI21
aI2
aI2
aI0
aI3
aI1
aI1
aI25
aI1
aI1
aI0
aI2
aI14
aI3
aI0
aI0
aI0
aI1
aI33
aI2
aI1
aI2
aI1
aI2
aI0
aI2
aI6
aI1
aI15
aI3
aI1
aI0
aI2
aI6
aI0
aI2
aI3
aI0
aI0
aI0
aI0
aI0
aI0
aI0
aI0
aI0
aI0
aI0
aI0
aI0
aI0
aI0
aI0
asS'PursueBehavior'
p10
(lp11
I8
aI0
aI2
aI29
aI0
aI2
aI1
aI18
aI3
aI43
aI59
aI31
aI47
aI39
aI22
aI11
aI0
aI2
aI13
aI9
aI30
aI14
aI2
aI4
aI0
aI0
aI1
aI1
aI30
aI14
aI9
aI4
aI3
aI14
aI7
aI39
aI21
aI24
aI43
aI40
aI23
aI69
aI1
aI0
aI1
aI5
aI0
aI2
aI1
aI4
aI1
aI3
aI3
aI12
aI3
aI1
aI2
aI5
aI15
aI35
aI49
aI19
aI51
aI35
aI24
aI30
aI33
aI13
aI36
aI76
aI8
aI16
aI25
aI69
aI48
aI20
aI30
aI61
aI14
aI9
aI44
aI41
aI19
aI37
aI35
aI46
aI19
aI64
aI88
aI33
aI46
aI31
aI29
aI53
aI25
aI10
aI17
aI31
aI56
aI15
aI29
aI23
aI32
aI24
aI29
aI58
aI30
aI24
aI16
aI27
aI18
aI39
aI70
aI21
aI27
asS'SeekBehavior'
p12
(lp13
I8
aI1
aI3
aI23
aI16
aI30
aI15
aI73
aI19
aI1
aI2
aI0
aI3
aI2
aI3
aI7
aI16
aI34
aI53
aI10
aI8
aI19
aI21
aI48
aI10
aI13
aI32
aI78
aI73
aI35
aI21
aI24
aI18
aI4
aI21
aI16
aI40
aI2
aI8
aI6
aI9
aI27
aI10
aI14
aI33
aI36
aI40
aI19
aI114
aI30
aI24
aI93
aI49
aI7
aI4
aI5
aI13
aI1
aI4
aI8
aI45
aI17
aI11
aI6
aI3
aI7
aI2
aI0
aI2
aI13
aI3
aI3
aI3
aI17
aI28
aI16
aI3
aI11
aI6
aI21
aI36
aI3
aI5
aI2
aI1
aI0
aI0
aI2
aI5
aI4
aI10
aI7
aI2
aI4
aI8
aI3
aI2
aI3
aI9
aI0
aI0
aI0
aI3
aI2
aI0
aI1
aI2
aI0
aI0
aI0
aI1
aI0
aI6
aI0
aI0
assI2
(dp14
S'FleeBehavior'
p15
(lp16
I14
aI4
aI19
aI26
aI1
aI1
aI2
aI11
aI2
aI2
aI11
aI2
aI3
aI2
aI20
aI4
aI0
aI6
aI35
aI18
aI39
aI40
aI24
aI51
aI11
aI11
aI35
aI72
aI22
aI37
aI12
aI23
aI22
aI16
aI27
aI52
aI58
aI24
aI18
aI40
aI33
aI81
aI11
aI14
aI29
aI37
aI37
aI21
aI110
aI28
aI23
aI76
aI30
aI2
aI4
aI20
aI38
aI30
aI1
aI7
aI93
aI23
aI4
aI6
aI18
aI12
aI16
aI9
aI36
aI56
aI11
aI18
aI28
aI83
aI87
aI35
aI30
aI65
aI20
aI28
aI69
aI41
aI25
aI38
aI36
aI45
aI18
aI65
aI57
aI17
aI8
aI8
aI6
aI20
aI8
aI0
aI0
aI3
aI9
aI2
aI3
aI3
aI1
aI2
aI0
aI2
aI1
aI0
aI1
aI0
aI5
aI1
aI3
aI0
aI1
asS'PursueBehavior'
p17
(lp18
I4
aI14
aI3
aI37
aI1
aI0
aI0
aI53
aI34
aI39
aI4
aI1
aI2
aI38
aI4
aI16
aI17
aI30
aI33
aI2
aI0
aI3
aI1
aI1
aI0
aI1
aI1
aI8
aI96
aI20
aI2
aI1
aI0
aI1
aI0
aI4
aI1
aI1
aI1
aI4
aI1
aI43
aI1
aI0
aI2
aI0
aI0
aI0
aI39
aI2
aI1
aI41
aI1
aI0
aI1
aI3
aI0
aI1
aI1
aI3
aI61
aI50
aI78
aI36
aI9
aI11
aI1
aI0
aI2
aI40
aI1
aI1
aI0
aI3
aI1
aI2
aI0
aI2
aI0
aI1
aI37
aI1
aI0
aI0
aI1
aI1
aI0
aI0
aI42
aI20
aI62
aI29
aI25
aI32
aI25
aI16
aI17
aI31
aI59
aI12
aI26
aI20
aI34
aI24
aI29
aI57
aI30
aI24
aI15
aI27
aI13
aI38
aI72
aI21
aI26
asS'SeekBehavior'
p19
(lp20
I6
aI3
aI4
aI22
aI18
aI36
aI14
aI64
aI0
aI3
aI47
aI28
aI47
aI3
aI1
aI1
aI0
aI1
aI14
aI0
aI1
aI0
aI0
aI2
aI0
aI0
aI0
aI3
aI7
aI16
aI22
aI9
aI0
aI0
aI0
aI1
aI3
aI2
aI34
aI2
aI0
aI12
aI0
aI0
aI3
aI3
aI3
aI0
aI9
aI5
aI1
aI8
aI22
aI20
aI11
aI21
aI9
aI14
aI17
aI34
aI40
aI10
aI1
aI1
aI2
aI14
aI21
aI5
aI1
aI18
aI0
aI1
aI0
aI2
aI2
aI2
aI3
aI5
aI0
aI2
aI7
aI4
aI0
aI3
aI0
aI2
aI1
aI3
aI0
aI1
aI1
aI4
aI0
aI4
aI2
aI2
aI1
aI2
aI0
aI0
aI0
aI0
aI0
aI0
aI0
aI0
aI0
aI0
aI0
aI0
aI0
aI0
aI0
aI0
aI0
assI3
(dp21
S'FleeBehavior'
p22
(lp23
I6
aI17
aI1
aI23
aI17
aI32
aI3
aI19
aI1
aI3
aI13
aI0
aI1
aI1
aI0
aI0
aI1
aI0
aI2
aI1
aI1
aI1
aI1
aI1
aI0
aI0
aI0
aI0
aI12
aI2
aI2
aI0
aI0
aI3
aI0
aI4
aI2
aI1
aI1
aI1
aI1
aI35
aI0
aI0
aI0
aI2
aI1
aI0
aI30
aI1
aI2
aI41
aI0
aI0
aI1
aI1
aI0
aI3
aI1
aI2
aI64
aI34
aI17
aI2
aI0
aI2
aI0
aI0
aI3
aI18
aI0
aI1
aI0
aI3
aI2
aI1
aI0
aI3
aI1
aI1
aI16
aI1
aI1
aI2
aI3
aI5
aI1
aI5
aI37
aI3
aI37
aI2
aI0
aI0
aI0
aI0
aI0
aI0
aI1
aI2
aI0
aI0
aI0
aI0
aI0
aI0
aI0
aI0
aI0
aI0
aI0
aI0
aI0
aI0
aI0
asS'PursueBehavior'
p24
(lp25
I15
aI2
aI0
aI12
aI2
aI4
aI11
aI79
aI31
aI18
aI13
aI1
aI1
aI0
aI0
aI1
aI0
aI2
aI30
aI0
aI1
aI15
aI5
aI12
aI11
aI12
aI34
aI75
aI47
aI11
aI3
aI3
aI1
aI0
aI0
aI1
aI1
aI1
aI1
aI1
aI0
aI6
aI0
aI1
aI0
aI1
aI1
aI1
aI11
aI22
aI20
aI29
aI0
aI0
aI2
aI3
aI3
aI2
aI1
aI2
aI12
aI13
aI53
aI4
aI1
aI0
aI2
aI0
aI0
aI20
aI0
aI1
aI0
aI3
aI4
aI1
aI2
aI2
aI3
aI0
aI21
aI1
aI0
aI0
aI1
aI4
aI1
aI2
aI0
aI3
aI3
aI0
aI1
aI1
aI1
aI3
aI0
aI1
aI4
aI1
aI0
aI0
aI0
aI0
aI0
aI0
aI0
aI0
aI0
aI0
aI0
aI0
aI0
aI0
aI0
asS'SeekBehavior'
p26
(lp27
I3
aI2
aI25
aI50
aI1
aI1
aI2
aI30
aI4
aI23
aI35
aI29
aI50
aI42
aI25
aI20
aI16
aI34
aI50
aI19
aI38
aI27
aI18
aI41
aI0
aI0
aI2
aI8
aI65
aI60
aI31
aI30
aI21
aI14
aI27
aI51
aI59
aI25
aI51
aI44
aI33
aI95
aI11
aI13
aI34
aI37
aI38
aI20
aI117
aI12
aI3
aI55
aI53
aI22
aI12
aI39
aI43
aI40
aI17
aI40
aI118
aI36
aI13
aI36
aI28
aI35
aI36
aI14
aI36
aI76
aI12
aI17
aI28
aI82
aI84
aI37
aI31
aI67
aI16
aI29
aI75
aI44
aI24
aI39
aI33
aI39
aI17
aI61
aI61
aI32
aI31
aI39
aI30
aI55
aI34
aI15
aI18
aI34
aI63
aI11
aI29
aI23
aI35
aI26
aI29
aI59
aI31
aI24
aI16
aI27
aI18
aI39
aI75
aI21
aI27
assI4
(dp28
S'FleeBehavior'
p29
(lp30
I3
aI1
aI0
aI24
aI0
aI0
aI0
aI31
aI5
aI3
aI48
aI2
aI2
aI1
aI0
aI2
aI0
aI3
aI15
aI0
aI4
aI1
aI1
aI2
aI0
aI2
aI2
aI7
aI22
aI11
aI0
aI0
aI1
aI1
aI0
aI2
aI2
aI0
aI1
aI2
aI5
aI37
aI0
aI1
aI2
aI1
aI0
aI1
aI9
aI0
aI0
aI53
aI4
aI1
aI0
aI1
aI1
aI1
aI0
aI0
aI27
aI22
aI5
aI4
aI0
aI2
aI2
aI1
aI15
aI19
aI1
aI2
aI1
aI0
aI2
aI1
aI4
aI2
aI1
aI0
aI12
aI12
aI4
aI5
aI0
aI0
aI2
aI1
aI6
aI1
aI2
aI1
aI0
aI4
aI0
aI0
aI2
aI2
aI3
aI1
aI0
aI0
aI0
aI0
aI0
aI0
aI0
aI0
aI0
aI0
aI0
aI0
aI0
aI0
aI0
asS'PursueBehavior'
p31
(lp32
I13
aI0
aI0
aI4
aI0
aI1
aI1
aI7
aI1
aI2
aI2
aI1
aI2
aI1
aI1
aI0
aI0
aI1
aI4
aI4
aI3
aI5
aI22
aI48
aI2
aI1
aI2
aI4
aI43
aI54
aI35
aI31
aI3
aI14
aI27
aI54
aI53
aI25
aI48
aI42
aI27
aI80
aI1
aI0
aI3
aI2
aI0
aI1
aI39
aI2
aI0
aI6
aI1
aI3
aI11
aI16
aI0
aI2
aI0
aI1
aI89
aI23
aI39
aI36
aI27
aI31
aI18
aI1
aI2
aI38
aI1
aI0
aI1
aI2
aI17
aI1
aI0
aI4
aI0
aI1
aI43
aI12
aI3
aI30
aI8
aI3
aI0
aI2
aI39
aI0
aI39
aI4
aI0
aI1
aI4
aI1
aI0
aI0
aI3
aI0
aI0
aI0
aI0
aI0
aI0
aI0
aI0
aI0
aI0
aI0
aI0
aI0
aI0
aI0
aI0
asS'SeekBehavior'
p33
(lp34
I8
aI20
aI25
aI57
aI20
aI36
aI15
aI90
aI30
aI39
aI11
aI27
aI48
aI40
aI24
aI19
aI17
aI32
aI63
aI16
aI33
aI37
aI1
aI4
aI9
aI9
aI32
aI71
aI59
aI7
aI0
aI2
aI18
aI2
aI0
aI0
aI7
aI2
aI3
aI1
aI2
aI19
aI10
aI13
aI29
aI37
aI40
aI19
aI110
aI33
aI25
aI66
aI48
aI18
aI4
aI26
aI45
aI42
aI18
aI42
aI78
aI38
aI39
aI2
aI1
aI4
aI18
aI12
aI22
aI57
aI10
aI17
aI26
aI86
aI71
aI36
aI29
aI65
aI19
aI29
aI57
aI22
aI18
aI6
aI29
aI45
aI17
aI65
aI53
aI37
aI30
aI35
aI31
aI51
aI31
aI17
aI16
aI33
aI61
aI13
aI29
aI22
aI34
aI26
aI29
aI59
aI31
aI24
aI15
aI26
aI18
aI39
aI75
aI20
aI26
asss.