(dp0
S'learn_scores'
p1
(lp2
F-420.0
aF-376.0
aF-422.0
aF-455.0
aF-449.0
asS'test_scores'
p3
(lp4
F-443.0
asS'behavior_count'
p5
(dp6
I1
(dp7
S'FleeBehavior'
p8
(lp9
I15
aI7
aI3
aI0
aI1
aI0
asS'PursueBehavior'
p10
(lp11
I23
aI2
aI1
aI5
aI27
aI33
asS'SeekBehavior'
p12
(lp13
I13
aI108
aI29
aI41
aI1
aI0
assI2
(dp14
S'FleeBehavior'
p15
(lp16
I16
aI42
aI30
aI45
aI13
aI33
asS'PursueBehavior'
p17
(lp18
I15
aI49
aI1
aI0
aI1
aI0
asS'SeekBehavior'
p19
(lp20
I20
aI26
aI2
aI1
aI15
aI0
assI3
(dp21
S'FleeBehavior'
p22
(lp23
I3
aI20
aI1
aI2
aI1
aI0
asS'PursueBehavior'
p24
(lp25
I39
aI58
aI29
aI44
aI25
aI0
asS'SeekBehavior'
p26
(lp27
I8
aI39
aI2
aI0
aI3
aI33
assI4
(dp28
S'FleeBehavior'
p29
(lp30
I23
aI43
aI2
aI1
aI1
aI0
asS'PursueBehavior'
p31
(lp32
I24
aI54
aI0
aI0
aI0
aI0
asS'SeekBehavior'
p33
(lp34
I3
aI20
aI30
aI45
aI28
aI33
asss.