(dp0
S'learn_scores'
p1
(lp2
F-426.0
aF-347.0
aF-385.0
aF-475.0
aF-105.0
aF-296.0
aF-473.0
aF-391.0
aF-444.0
aF-418.0
aF-340.0
aF-369.0
aF-417.0
aF-412.0
aF-460.0
aF-437.0
aF-410.0
aF-436.0
aF-400.0
aF-467.0
aF-425.0
aF-234.0
aF-411.0
aF-341.0
aF-409.0
aF89.0
aF-322.0
aF-406.0
aF-419.0
aF-441.0
aF-405.0
aF-6.0
aF-169.0
aF-462.0
aF-57.0
aF-866.0
aF-379.0
aF-415.0
aF-417.0
aF-394.0
aF-270.0
aF-377.0
aF-421.0
aF-416.0
aF-379.0
aF-381.0
aF-435.0
aF-385.0
aF-456.0
aF-450.0
aF-413.0
aF-414.0
aF-910.0
aF-448.0
aF359.0
aF-452.0
aF-301.0
aF-427.0
aF-440.0
aF-388.0
aF-373.0
aF-304.0
aF-415.0
aF-434.0
aF186.0
aF-366.0
aF263.0
aF-357.0
aF-451.0
aF-411.0
aF-375.0
aF-429.0
aF-374.0
aF-358.0
aF-419.0
aF-424.0
aF-406.0
aF-431.0
aF-452.0
aF-461.0
aF-397.0
aF119.0
aF-414.0
aF-398.0
aF-335.0
aF-419.0
aF-457.0
aF-459.0
aF-450.0
aF-392.0
aF-378.0
aF-435.0
aF-368.0
aF-388.0
aF-354.0
aF-407.0
aF-467.0
aF-347.0
aF-407.0
aF-363.0
asS'test_scores'
p3
(lp4
F-318.0
aF200.0
aF-359.0
aF-1.0
aF-425.0
aF-262.0
aF380.0
aF-414.0
aF-414.0
aF-356.0
aF-311.0
aF-430.0
aF-466.0
aF-323.0
aF-436.0
asS'behavior_count'
p5
(dp6
I1
(dp7
S'FleeBehavior'
p8
(lp9
I7
aI0
aI3
aI0
aI9
aI24
aI0
aI0
aI0
aI1
aI0
aI0
aI1
aI2
aI0
aI1
aI0
aI1
aI2
aI0
aI1
aI3
aI0
aI0
aI0
aI6
aI1
aI2
aI0
aI4
aI1
aI5
aI29
aI31
aI56
aI13
aI0
aI0
aI1
aI1
aI4
aI1
aI2
aI11
aI36
aI6
aI0
aI1
aI0
aI3
aI2
aI1
aI1
aI1
aI5
aI0
aI3
aI0
aI0
aI0
aI1
aI1
aI0
aI0
aI2
aI3
aI39
aI16
aI10
aI27
aI22
aI35
aI33
aI23
aI19
aI17
aI24
aI11
aI31
aI11
aI27
aI79
aI25
aI15
aI15
aI43
aI14
aI13
aI9
aI36
aI26
aI17
aI35
aI37
aI43
aI13
aI15
aI52
aI6
aI10
aI38
aI82
aI31
aI59
aI23
aI44
aI53
aI21
aI26
aI33
aI45
aI9
aI14
aI30
aI26
asS'PursueBehavior'
p10
(lp11
I6
aI27
aI43
aI15
aI46
aI20
aI0
aI3
aI2
aI0
aI1
aI3
aI0
aI1
aI1
aI1
aI17
aI22
aI36
aI17
aI21
aI67
aI21
aI41
aI18
aI73
aI40
aI25
aI19
aI17
aI35
aI112
aI72
aI1
aI6
aI42
aI20
aI26
aI27
aI42
aI42
aI25
aI38
aI15
aI1
aI7
aI0
aI5
aI2
aI1
aI1
aI0
aI1
aI2
aI20
aI0
aI0
aI0
aI0
aI2
aI0
aI1
aI0
aI0
aI7
aI5
aI35
aI1
aI2
aI3
aI1
aI2
aI2
aI1
aI1
aI0
aI1
aI1
aI1
aI1
aI0
aI37
aI3
aI3
aI0
aI2
aI0
aI0
aI1
aI3
aI2
aI4
aI2
aI0
aI4
aI1
aI2
aI2
aI0
aI0
aI0
aI37
aI0
aI40
aI0
aI40
aI7
aI0
aI0
aI0
aI0
aI0
aI0
aI0
aI0
asS'SeekBehavior'
p12
(lp13
I4
aI1
aI0
aI1
aI20
aI52
aI13
aI28
aI22
aI17
aI40
aI27
aI27
aI50
aI29
aI15
aI14
aI4
aI2
aI1
aI4
aI5
aI1
aI1
aI2
aI23
aI1
aI0
aI0
aI0
aI0
aI40
aI9
aI1
aI16
aI1
aI0
aI0
aI0
aI2
aI4
aI2
aI2
aI1
aI2
aI9
aI15
aI39
aI15
aI26
aI41
aI24
aI28
aI16
aI47
aI13
aI49
aI17
aI10
aI17
aI32
aI52
aI16
aI14
aI75
aI49
aI53
aI21
aI0
aI2
aI3
aI3
aI0
aI4
aI10
aI8
aI2
aI0
aI1
aI0
aI1
aI16
aI6
aI21
aI41
aI15
aI4
aI6
aI1
aI4
aI0
aI5
aI2
aI2
aI7
aI3
aI0
aI14
aI12
aI24
aI1
aI22
aI9
aI13
aI2
aI8
aI20
aI3
aI8
aI3
aI7
aI1
aI3
aI4
aI1
assI2
(dp14
S'FleeBehavior'
p15
(lp16
I6
aI2
aI1
aI0
aI13
aI3
aI0
aI0
aI1
aI0
aI2
aI1
aI5
aI15
aI26
aI16
aI26
aI26
aI37
aI14
aI25
aI63
aI19
aI41
aI19
aI55
aI35
aI27
aI19
aI21
aI33
aI87
aI35
aI14
aI5
aI5
aI2
aI0
aI2
aI3
aI1
aI18
aI9
aI0
aI1
aI0
aI0
aI0
aI0
aI1
aI0
aI2
aI2
aI0
aI2
aI1
aI2
aI0
aI1
aI1
aI0
aI0
aI0
aI2
aI4
aI2
aI38
aI2
aI0
aI4
aI0
aI2
aI6
aI22
aI21
aI23
aI24
aI11
aI29
aI12
aI23
aI114
aI31
aI35
aI49
aI47
aI16
aI17
aI8
aI38
aI26
aI23
aI38
aI32
aI53
aI17
aI14
aI64
aI16
aI32
aI39
aI137
aI40
aI106
aI25
aI92
aI79
aI24
aI34
aI36
aI52
aI10
aI16
aI34
aI27
asS'PursueBehavior'
p17
(lp18
I5
aI1
aI1
aI0
aI9
aI21
aI12
aI30
aI23
aI16
aI38
aI26
aI18
aI32
aI1
aI1
aI2
aI1
aI0
aI1
aI0
aI5
aI1
aI1
aI1
aI22
aI6
aI0
aI0
aI0
aI1
aI27
aI50
aI3
aI44
aI14
aI0
aI2
aI1
aI1
aI1
aI0
aI0
aI1
aI1
aI1
aI1
aI0
aI0
aI1
aI1
aI1
aI3
aI0
aI1
aI0
aI3
aI1
aI0
aI3
aI1
aI2
aI0
aI1
aI0
aI4
aI3
aI1
aI0
aI0
aI1
aI2
aI2
aI1
aI5
aI2
aI1
aI0
aI2
aI0
aI1
aI6
aI1
aI1
aI3
aI5
aI0
aI0
aI0
aI0
aI1
aI2
aI1
aI3
aI0
aI0
aI1
aI2
aI1
aI2
aI0
aI0
aI0
aI0
aI0
aI0
aI0
aI0
aI0
aI0
aI0
aI0
aI0
aI0
aI0
asS'SeekBehavior'
p19
(lp20
I6
aI25
aI44
aI15
aI53
aI72
aI1
aI1
aI0
aI2
aI1
aI2
aI5
aI6
aI3
aI0
aI3
aI0
aI3
aI3
aI1
aI7
aI2
aI0
aI0
aI25
aI1
aI0
aI0
aI0
aI1
aI43
aI25
aI15
aI29
aI37
aI18
aI24
aI24
aI40
aI48
aI10
aI33
aI25
aI37
aI21
aI14
aI45
aI17
aI28
aI43
aI22
aI25
aI19
aI68
aI11
aI47
aI16
aI9
aI15
aI32
aI52
aI16
aI11
aI80
aI51
aI86
aI35
aI12
aI28
aI24
aI36
aI27
aI5
aI3
aI0
aI2
aI0
aI2
aI0
aI4
aI12
aI2
aI2
aI4
aI8
aI1
aI2
aI3
aI5
aI1
aI1
aI0
aI4
aI1
aI0
aI2
aI1
aI0
aI0
aI0
aI4
aI0
aI5
aI0
aI0
aI1
aI0
aI0
aI0
aI0
aI0
aI0
aI0
aI0
assI3
(dp21
S'FleeBehavior'
p22
(lp23
I4
aI0
aI2
aI0
aI9
aI8
aI0
aI0
aI1
aI0
aI1
aI2
aI3
aI2
aI1
aI2
aI9
aI20
aI5
aI0
aI2
aI23
aI21
aI37
aI2
aI25
aI38
aI23
aI18
aI17
aI18
aI36
aI73
aI5
aI6
aI28
aI16
aI22
aI23
aI41
aI48
aI27
aI36
aI25
aI37
aI21
aI15
aI41
aI15
aI29
aI43
aI25
aI29
aI16
aI46
aI11
aI48
aI16
aI10
aI18
aI32
aI50
aI14
aI14
aI49
aI54
aI73
aI25
aI2
aI19
aI23
aI39
aI31
aI26
aI26
aI19
aI27
aI11
aI30
aI11
aI27
aI85
aI33
aI33
aI52
aI54
aI12
aI18
aI9
aI40
aI24
aI24
aI37
aI36
aI53
aI15
aI16
aI64
aI17
aI33
aI39
aI108
aI40
aI82
aI25
aI52
aI55
aI24
aI34
aI36
aI52
aI10
aI16
aI34
aI26
asS'PursueBehavior'
p24
(lp25
I4
aI14
aI41
aI15
aI54
aI62
aI1
aI0
aI0
aI4
aI3
aI1
aI1
aI4
aI6
aI0
aI0
aI2
aI0
aI2
aI1
aI3
aI0
aI2
aI1
aI14
aI2
aI2
aI0
aI2
aI5
aI23
aI17
aI0
aI7
aI4
aI3
aI2
aI3
aI1
aI0
aI0
aI3
aI0
aI2
aI0
aI0
aI2
aI1
aI1
aI0
aI0
aI1
aI1
aI2
aI0
aI3
aI0
aI0
aI0
aI1
aI1
aI2
aI0
aI3
aI2
aI19
aI12
aI9
aI12
aI2
aI0
aI1
aI1
aI2
aI0
aI0
aI0
aI1
aI1
aI0
aI24
aI0
aI2
aI3
aI1
aI3
aI1
aI0
aI2
aI1
aI0
aI2
aI0
aI1
aI1
aI0
aI1
aI0
aI0
aI0
aI1
aI0
aI14
aI0
aI0
aI0
aI0
aI0
aI0
aI0
aI0
aI0
aI0
aI0
asS'SeekBehavior'
p26
(lp27
I8
aI14
aI2
aI0
aI12
aI26
aI12
aI31
aI23
aI14
aI37
aI26
aI23
aI46
aI23
aI15
aI22
aI4
aI35
aI16
aI23
aI49
aI1
aI3
aI17
aI63
aI2
aI2
aI1
aI2
aI12
aI98
aI19
aI27
aI65
aI24
aI1
aI1
aI1
aI2
aI2
aI0
aI2
aI1
aI0
aI1
aI0
aI2
aI0
aI0
aI1
aI0
aI0
aI1
aI23
aI1
aI1
aI1
aI0
aI1
aI0
aI3
aI0
aI0
aI32
aI1
aI35
aI1
aI1
aI1
aI0
aI0
aI3
aI1
aI1
aI5
aI0
aI0
aI1
aI0
aI0
aI23
aI1
aI3
aI1
aI5
aI2
aI0
aI1
aI0
aI3
aI1
aI0
aI3
aI0
aI1
aI1
aI2
aI0
aI1
aI0
aI32
aI0
aI15
aI0
aI40
aI25
aI0
aI0
aI0
aI0
aI0
aI0
aI0
aI0
assI4
(dp28
S'FleeBehavior'
p29
(lp30
I2
aI7
aI31
aI0
aI23
aI60
aI0
aI0
aI0
aI0
aI2
aI0
aI1
aI2
aI0
aI0
aI3
aI0
aI1
aI0
aI1
aI2
aI1
aI20
aI1
aI6
aI2
aI1
aI2
aI0
aI2
aI10
aI64
aI31
aI46
aI24
aI18
aI23
aI23
aI41
aI48
aI26
aI40
aI24
aI36
aI18
aI15
aI41
aI13
aI27
aI38
aI23
aI27
aI16
aI51
aI10
aI45
aI6
aI1
aI1
aI2
aI0
aI0
aI2
aI22
aI10
aI40
aI32
aI7
aI27
aI19
aI38
aI32
aI25
aI19
aI15
aI9
aI0
aI0
aI0
aI0
aI34
aI1
aI2
aI2
aI10
aI7
aI3
aI5
aI21
aI0
aI1
aI2
aI19
aI14
aI7
aI3
aI31
aI0
aI1
aI0
aI16
aI0
aI12
aI0
aI1
aI22
aI0
aI0
aI0
aI0
aI0
aI0
aI0
aI0
asS'PursueBehavior'
p31
(lp32
I4
aI1
aI0
aI0
aI20
aI14
aI0
aI2
aI2
aI1
aI1
aI2
aI0
aI1
aI1
aI0
aI0
aI1
aI1
aI0
aI1
aI4
aI1
aI10
aI13
aI38
aI5
aI19
aI2
aI1
aI0
aI58
aI16
aI1
aI20
aI21
aI1
aI1
aI0
aI0
aI0
aI0
aI0
aI0
aI2
aI2
aI0
aI3
aI1
aI2
aI1
aI0
aI2
aI2
aI14
aI0
aI2
aI0
aI0
aI0
aI1
aI2
aI0
aI0
aI27
aI3
aI29
aI0
aI0
aI1
aI0
aI0
aI0
aI0
aI0
aI0
aI1
aI0
aI0
aI0
aI1
aI8
aI1
aI1
aI3
aI2
aI2
aI1
aI0
aI2
aI1
aI0
aI3
aI0
aI4
aI0
aI2
aI1
aI0
aI2
aI0
aI23
aI0
aI27
aI0
aI39
aI10
aI0
aI0
aI0
aI0
aI0
aI0
aI0
aI0
asS'SeekBehavior'
p33
(lp34
I10
aI19
aI14
aI15
aI32
aI22
aI13
aI29
aI22
aI17
aI38
aI27
aI26
aI49
aI29
aI17
aI27
aI25
aI38
aI18
aI24
aI69
aI20
aI11
aI5
aI58
aI35
aI7
aI15
aI20
aI33
aI88
aI29
aI0
aI11
aI11
aI0
aI1
aI4
aI3
aI2
aI1
aI1
aI2
aI1
aI1
aI0
aI1
aI2
aI1
aI4
aI2
aI1
aI0
aI6
aI2
aI5
aI11
aI9
aI17
aI30
aI52
aI15
aI12
aI35
aI44
aI58
aI6
aI4
aI3
aI6
aI1
aI2
aI3
aI10
aI9
aI16
aI11
aI32
aI12
aI26
aI90
aI32
aI35
aI50
aI47
aI8
aI15
aI5
aI19
aI27
aI24
aI33
aI20
aI36
aI10
aI12
aI35
aI17
aI30
aI39
aI101
aI40
aI72
aI25
aI52
aI48
aI24
aI34
aI36
aI51
aI10
aI16
aI33
aI26
asss.