(dp0
S'learn_scores'
p1
(lp2
F105.0
aF-461.0
aF-378.0
aF265.0
aF-382.0
aF-417.0
aF-215.0
aF-412.0
aF-403.0
aF-383.0
aF-432.0
aF-424.0
aF-408.0
aF-338.0
aF-388.0
aF-374.0
aF-239.0
aF-106.0
aF-317.0
aF102.0
aF-398.0
aF-397.0
aF-351.0
aF-372.0
aF-423.0
aF-404.0
aF-358.0
aF-314.0
aF-410.0
aF-287.0
aF-442.0
aF-468.0
aF-389.0
aF-333.0
aF-427.0
aF-375.0
aF-441.0
aF-460.0
aF-386.0
aF-365.0
aF-312.0
aF-433.0
aF-297.0
aF-403.0
aF-409.0
aF-400.0
aF-364.0
aF-453.0
aF-377.0
aF-447.0
aF-406.0
aF-456.0
aF-368.0
aF-475.0
aF-299.0
aF-391.0
aF-447.0
aF-407.0
aF-394.0
aF-410.0
aF440.0
aF-429.0
aF-384.0
aF-407.0
aF-391.0
aF-380.0
aF-269.0
aF-389.0
aF-410.0
aF-45.0
aF-428.0
aF-399.0
aF-358.0
aF-444.0
aF-415.0
aF-383.0
aF-396.0
aF85.0
aF-389.0
aF-457.0
aF-441.0
aF-288.0
aF-378.0
aF-433.0
aF-313.0
aF-409.0
aF-344.0
aF-462.0
aF-431.0
aF-452.0
aF-230.0
aF339.0
aF-303.0
aF-407.0
aF-391.0
aF-397.0
aF-384.0
aF-405.0
aF-222.0
aF-203.0
asS'test_scores'
p3
(lp4
F-398.0
aF-460.0
aF-420.0
aF-208.0
aF-400.0
aF-419.0
aF-468.0
aF-406.0
aF-433.0
aF-418.0
aF-388.0
aF-151.0
aF-333.0
aF-388.0
aF-398.0
asS'behavior_count'
p5
(dp6
I1
(dp7
S'FleeBehavior'
p8
(lp9
I53
aI4
aI26
aI23
aI0
aI0
aI6
aI0
aI7
aI1
aI1
aI0
aI0
aI1
aI0
aI7
aI15
aI28
aI38
aI15
aI8
aI6
aI9
aI5
aI2
aI3
aI30
aI41
aI4
aI36
aI0
aI0
aI3
aI3
aI0
aI0
aI1
aI1
aI10
aI0
aI15
aI1
aI12
aI12
aI5
aI1
aI1
aI1
aI0
aI1
aI0
aI2
aI2
aI1
aI1
aI3
aI1
aI2
aI0
aI1
aI8
aI0
aI1
aI1
aI0
aI2
aI1
aI0
aI1
aI16
aI0
aI0
aI2
aI0
aI1
aI2
aI1
aI50
aI16
aI9
aI17
aI29
aI28
aI19
aI29
aI19
aI6
aI19
aI6
aI1
aI31
aI43
aI14
aI1
aI2
aI0
aI2
aI3
aI12
aI6
aI0
aI0
aI0
aI0
aI0
aI0
aI0
aI0
aI0
aI0
aI0
aI0
aI0
aI0
aI0
asS'PursueBehavior'
p10
(lp11
I8
aI0
aI1
aI42
aI20
aI26
aI88
aI22
aI7
aI32
aI21
aI25
aI56
aI35
aI27
aI17
aI55
aI53
aI28
aI24
aI10
aI41
aI31
aI16
aI12
aI30
aI19
aI12
aI27
aI19
aI23
aI18
aI35
aI57
aI17
aI25
aI17
aI9
aI95
aI36
aI64
aI31
aI43
aI10
aI14
aI29
aI22
aI12
aI25
aI27
aI26
aI24
aI46
aI14
aI49
aI37
aI16
aI25
aI25
aI19
aI87
aI19
aI40
aI27
aI30
aI46
aI57
aI30
aI19
aI72
aI17
aI16
aI35
aI15
aI34
aI31
aI45
aI87
aI24
aI7
aI4
aI27
aI8
aI23
aI31
aI11
aI17
aI12
aI14
aI12
aI95
aI112
aI43
aI27
aI28
aI17
aI32
aI41
aI102
aI29
aI4
aI8
aI16
aI34
aI12
aI14
aI4
aI8
aI7
aI3
aI16
aI21
aI20
aI5
aI15
asS'SeekBehavior'
p12
(lp13
I44
aI18
aI12
aI61
aI2
aI1
aI32
aI1
aI20
aI0
aI1
aI0
aI2
aI2
aI2
aI1
aI10
aI26
aI2
aI49
aI1
aI1
aI2
aI1
aI0
aI1
aI0
aI2
aI0
aI2
aI0
aI0
aI2
aI3
aI0
aI1
aI3
aI1
aI2
aI0
aI4
aI1
aI3
aI1
aI1
aI1
aI2
aI0
aI2
aI0
aI0
aI0
aI1
aI0
aI20
aI1
aI1
aI0
aI0
aI1
aI66
aI0
aI3
aI0
aI2
aI2
aI1
aI0
aI0
aI7
aI1
aI3
aI2
aI0
aI1
aI1
aI1
aI9
aI0
aI2
aI1
aI2
aI3
aI1
aI3
aI0
aI1
aI1
aI2
aI0
aI4
aI7
aI7
aI0
aI2
aI1
aI0
aI2
aI28
aI39
aI15
aI22
aI5
aI55
aI9
aI16
aI14
aI29
aI7
aI15
aI13
aI60
aI24
aI24
aI4
assI2
(dp14
S'FleeBehavior'
p15
(lp16
I43
aI20
aI32
aI26
aI21
aI24
aI64
aI0
aI0
aI2
aI3
aI1
aI3
aI8
aI0
aI2
aI8
aI23
aI17
aI39
aI1
aI0
aI0
aI1
aI1
aI0
aI2
aI1
aI1
aI2
aI0
aI1
aI1
aI4
aI13
aI22
aI21
aI10
aI97
aI18
aI50
aI1
aI2
aI2
aI1
aI1
aI0
aI2
aI4
aI6
aI1
aI0
aI4
aI0
aI5
aI2
aI3
aI0
aI0
aI0
aI7
aI0
aI15
aI2
aI14
aI24
aI14
aI14
aI18
aI52
aI18
aI15
aI33
aI12
aI6
aI2
aI14
aI87
aI1
aI0
aI1
aI3
aI4
aI3
aI5
aI1
aI0
aI2
aI0
aI1
aI18
aI38
aI37
aI6
aI25
aI8
aI2
aI11
aI17
aI29
aI0
aI0
aI0
aI0
aI0
aI0
aI0
aI0
aI0
aI0
aI0
aI0
aI0
aI0
aI0
asS'PursueBehavior'
p17
(lp18
I27
aI1
aI5
aI46
aI1
aI2
aI23
aI22
aI34
aI29
aI19
aI24
aI52
aI28
aI26
aI20
aI58
aI59
aI31
aI9
aI18
aI46
aI39
aI18
aI12
aI34
aI47
aI51
aI26
aI53
aI20
aI17
aI37
aI27
aI3
aI2
aI0
aI1
aI8
aI10
aI23
aI32
aI50
aI19
aI4
aI25
aI0
aI0
aI6
aI15
aI24
aI24
aI43
aI14
aI29
aI39
aI13
aI26
aI24
aI21
aI80
aI17
aI28
aI25
aI15
aI24
aI41
aI14
aI2
aI6
aI0
aI3
aI4
aI3
aI28
aI32
aI30
aI32
aI34
aI18
aI20
aI53
aI34
aI36
aI56
aI28
aI23
aI28
aI21
aI11
aI98
aI92
aI19
aI17
aI7
aI9
aI30
aI21
aI76
aI16
aI19
aI30
aI21
aI89
aI21
aI29
aI18
aI37
aI14
aI18
aI29
aI81
aI44
aI29
aI18
asS'SeekBehavior'
p19
(lp20
I35
aI0
aI2
aI54
aI0
aI1
aI39
aI0
aI0
aI2
aI1
aI0
aI3
aI2
aI2
aI3
aI14
aI25
aI19
aI40
aI0
aI1
aI2
aI3
aI0
aI0
aI0
aI2
aI4
aI2
aI3
aI0
aI2
aI32
aI1
aI1
aI0
aI0
aI2
aI7
aI10
aI0
aI5
aI2
aI14
aI4
aI25
aI11
aI17
aI7
aI1
aI2
aI2
aI1
aI36
aI0
aI2
aI1
aI1
aI0
aI74
aI2
aI1
aI1
aI2
aI2
aI4
aI2
aI0
aI37
aI0
aI1
aI2
aI0
aI2
aI0
aI2
aI27
aI5
aI0
aI1
aI2
aI1
aI4
aI2
aI0
aI1
aI2
aI0
aI0
aI14
aI32
aI7
aI5
aI0
aI0
aI2
aI13
aI49
aI29
aI0
aI0
aI0
aI0
aI0
aI0
aI0
aI0
aI0
aI0
aI0
aI0
aI0
aI0
aI0
assI3
(dp21
S'FleeBehavior'
p22
(lp23
I29
aI21
aI34
aI54
aI0
aI1
aI37
aI1
aI0
aI3
aI1
aI0
aI2
aI2
aI0
aI1
aI5
aI16
aI56
aI78
aI4
aI2
aI0
aI0
aI0
aI2
aI0
aI0
aI0
aI1
aI0
aI1
aI0
aI2
aI0
aI2
aI1
aI1
aI3
aI1
aI1
aI1
aI2
aI0
aI2
aI2
aI3
aI0
aI0
aI2
aI0
aI0
aI3
aI1
aI37
aI2
aI1
aI0
aI0
aI1
aI61
aI0
aI4
aI1
aI0
aI3
aI4
aI2
aI1
aI33
aI0
aI1
aI3
aI1
aI2
aI2
aI2
aI38
aI2
aI0
aI0
aI4
aI19
aI30
aI11
aI6
aI1
aI0
aI0
aI0
aI10
aI51
aI3
aI1
aI2
aI0
aI2
aI1
aI5
aI10
aI0
aI4
aI8
aI31
aI1
aI4
aI5
aI22
aI1
aI4
aI6
aI9
aI19
aI1
aI6
asS'PursueBehavior'
p24
(lp25
I34
aI0
aI4
aI70
aI19
aI26
aI62
aI0
aI0
aI1
aI1
aI2
aI4
aI22
aI3
aI1
aI14
aI32
aI5
aI7
aI14
aI42
aI36
aI1
aI0
aI2
aI8
aI1
aI0
aI1
aI1
aI3
aI0
aI4
aI0
aI0
aI2
aI1
aI2
aI2
aI5
aI1
aI4
aI14
aI11
aI3
aI8
aI2
aI1
aI0
aI1
aI2
aI2
aI0
aI4
aI4
aI0
aI0
aI2
aI2
aI20
aI0
aI1
aI2
aI4
aI5
aI1
aI3
aI0
aI4
aI1
aI3
aI5
aI2
aI9
aI7
aI10
aI68
aI35
aI17
aI22
aI52
aI17
aI12
aI46
aI20
aI22
aI31
aI19
aI12
aI114
aI63
aI24
aI26
aI28
aI16
aI28
aI42
aI116
aI54
aI19
aI26
aI13
aI58
aI19
aI25
aI13
aI14
aI13
aI14
aI23
aI72
aI25
aI28
aI12
asS'SeekBehavior'
p26
(lp27
I42
aI0
aI1
aI2
aI3
aI0
aI27
aI21
aI33
aI29
aI21
aI23
aI52
aI14
aI25
aI22
aI60
aI58
aI6
aI3
aI1
aI3
aI5
aI21
aI13
aI30
aI40
aI53
aI31
aI55
aI22
aI14
aI39
aI57
aI17
aI23
aI18
aI9
aI102
aI32
aI76
aI31
aI51
aI9
aI6
aI25
aI14
aI11
aI26
aI26
aI25
aI24
aI43
aI14
aI29
aI35
aI16
aI27
aI22
aI18
aI80
aI19
aI39
aI25
aI27
aI42
aI54
aI25
aI19
aI58
aI17
aI15
aI30
aI11
aI24
aI25
aI34
aI40
aI3
aI1
aI0
aI2
aI3
aI1
aI6
aI3
aI1
aI1
aI2
aI0
aI6
aI48
aI36
aI1
aI1
aI1
aI4
aI2
aI21
aI9
aI0
aI0
aI0
aI0
aI0
aI0
aI0
aI0
aI0
aI0
aI0
aI0
aI0
aI0
aI0
assI4
(dp28
S'FleeBehavior'
p29
(lp30
I22
aI0
aI1
aI14
aI5
aI24
aI74
aI7
aI19
aI26
aI20
aI21
aI55
aI35
aI22
aI20
aI55
aI71
aI35
aI39
aI7
aI41
aI4
aI0
aI0
aI1
aI0
aI5
aI2
aI1
aI0
aI1
aI2
aI1
aI0
aI0
aI1
aI0
aI3
aI3
aI42
aI28
aI24
aI12
aI3
aI2
aI1
aI1
aI1
aI1
aI1
aI1
aI4
aI0
aI1
aI1
aI1
aI0
aI1
aI1
aI38
aI0
aI2
aI2
aI0
aI1
aI3
aI1
aI1
aI6
aI3
aI8
aI24
aI2
aI1
aI1
aI6
aI65
aI2
aI1
aI4
aI12
aI2
aI0
aI9
aI2
aI3
aI5
aI0
aI0
aI8
aI35
aI13
aI11
aI6
aI5
aI27
aI33
aI84
aI44
aI10
aI18
aI9
aI25
aI11
aI10
aI14
aI21
aI5
aI3
aI12
aI30
aI15
aI15
aI4
asS'PursueBehavior'
p31
(lp32
I26
aI21
aI37
aI84
aI0
aI1
aI29
aI12
aI8
aI4
aI1
aI3
aI3
aI2
aI2
aI2
aI2
aI6
aI22
aI41
aI1
aI0
aI3
aI1
aI0
aI2
aI1
aI4
aI0
aI3
aI1
aI0
aI0
aI1
aI1
aI0
aI0
aI0
aI4
aI1
aI1
aI1
aI0
aI0
aI1
aI1
aI1
aI1
aI2
aI0
aI1
aI0
aI1
aI0
aI35
aI1
aI0
aI0
aI0
aI0
aI19
aI1
aI0
aI0
aI0
aI2
aI2
aI2
aI2
aI38
aI0
aI1
aI0
aI1
aI1
aI0
aI0
aI29
aI4
aI1
aI0
aI2
aI1
aI3
aI2
aI1
aI1
aI4
aI0
aI2
aI3
aI7
aI2
aI0
aI3
aI0
aI1
aI1
aI8
aI2
aI1
aI2
aI0
aI10
aI1
aI0
aI0
aI0
aI3
aI1
aI1
aI4
aI4
aI0
aI0
asS'SeekBehavior'
p33
(lp34
I57
aI0
aI0
aI28
aI17
aI2
aI23
aI3
aI6
aI3
aI1
aI0
aI0
aI1
aI4
aI2
aI22
aI29
aI10
aI8
aI10
aI6
aI34
aI21
aI13
aI31
aI47
aI45
aI29
aI53
aI22
aI17
aI37
aI61
aI16
aI25
aI20
aI10
aI100
aI31
aI39
aI4
aI33
aI11
aI15
aI27
aI22
aI11
aI24
aI27
aI24
aI25
aI43
aI15
aI33
aI39
aI16
aI27
aI23
aI19
aI104
aI18
aI42
aI25
aI31
aI47
aI54
aI27
aI17
aI51
aI15
aI10
aI14
aI11
aI33
aI32
aI40
aI52
aI34
aI15
aI17
aI44
aI36
aI40
aI52
aI26
aI20
aI23
aI21
aI10
aI119
aI120
aI48
aI16
aI22
aI12
aI6
aI11
aI50
aI27
aI8
aI10
aI12
aI54
aI8
aI19
aI4
aI15
aI6
aI14
aI16
aI47
aI25
aI13
aI14
asss.