(dp0
S'learn_scores'
p1
(lp2
F269.0
aF-437.0
asS'test_scores'
p3
(lp4
F-422.0
aF-235.0
aF-402.0
asS'behavior_count'
p5
(dp6
I1
(dp7
S'FleeBehavior'
p8
(lp9
I13
aI17
aI22
aI86
aI53
asS'PursueBehavior'
p10
(lp11
I33
aI1
aI0
aI0
aI0
asS'SeekBehavior'
p12
(lp13
I26
aI0
aI0
aI0
aI0
assI2
(dp14
S'FleeBehavior'
p15
(lp16
I27
aI0
aI0
aI0
aI0
asS'PursueBehavior'
p17
(lp18
I20
aI1
aI0
aI0
aI0
asS'SeekBehavior'
p19
(lp20
I25
aI16
aI22
aI86
aI53
assI3
(dp21
S'FleeBehavior'
p22
(lp23
I28
aI11
aI22
aI86
aI53
asS'PursueBehavior'
p24
(lp25
I31
aI6
aI0
aI0
aI0
asS'SeekBehavior'
p26
(lp27
I13
aI0
aI0
aI0
aI0
assI4
(dp28
S'FleeBehavior'
p29
(lp30
I12
aI16
aI22
aI85
aI53
asS'PursueBehavior'
p31
(lp32
I22
aI1
aI0
aI0
aI0
asS'SeekBehavior'
p33
(lp34
I38
aI0
aI0
aI0
aI0
asss.