(dp0
S'learn_scores'
p1
(lp2
F-304.0
aF-365.0
aF-425.0
aF-300.0
aF-441.0
aF-406.0
aF-265.0
aF-445.0
aF-463.0
aF-468.0
aF-401.0
aF-438.0
aF-442.0
aF-382.0
aF204.0
aF-452.0
aF-325.0
aF-378.0
aF-452.0
aF-455.0
aF-399.0
aF-414.0
aF-443.0
aF-452.0
aF-446.0
aF-410.0
aF-36.0
aF-434.0
aF-32.0
aF-430.0
aF-405.0
aF156.0
aF-404.0
aF-308.0
aF-458.0
aF-219.0
aF-400.0
aF-359.0
aF-277.0
aF-416.0
aF-237.0
aF-451.0
aF-395.0
aF-354.0
aF-116.0
aF-378.0
aF-393.0
aF-406.0
aF-453.0
aF-303.0
aF-437.0
aF-67.0
aF-417.0
aF-369.0
aF-298.0
aF-458.0
aF-174.0
aF-379.0
aF-434.0
aF-380.0
aF-416.0
aF-455.0
aF-355.0
aF-452.0
aF-446.0
aF-423.0
aF-408.0
aF-380.0
aF-265.0
aF-420.0
aF-421.0
aF-5.0
aF-410.0
aF-399.0
aF-398.0
aF-291.0
aF-374.0
aF-419.0
aF-407.0
aF-456.0
aF-408.0
aF-261.0
aF-390.0
aF-453.0
aF-188.0
aF-245.0
aF-438.0
aF-375.0
aF-405.0
aF-256.0
aF190.0
aF-357.0
aF-415.0
aF-382.0
aF-452.0
aF-431.0
aF-319.0
aF-395.0
aF-412.0
aF-371.0
asS'test_scores'
p3
(lp4
F-380.0
aF-440.0
aF-203.0
aF-219.0
aF-393.0
aF-195.0
aF-394.0
aF-310.0
aF-445.0
aF-35.0
aF-436.0
aF-95.0
aF-453.0
aF-399.0
aF-369.0
asS'behavior_count'
p5
(dp6
I1
(dp7
S'FleeBehavior'
p8
(lp9
I12
aI34
aI23
aI52
aI9
aI27
aI45
aI1
aI0
aI1
aI0
aI0
aI0
aI1
aI9
aI1
aI4
aI20
aI6
aI3
aI4
aI1
aI7
aI12
aI16
aI38
aI96
aI3
aI28
aI0
aI1
aI42
aI7
aI43
aI27
aI74
aI1
aI7
aI28
aI11
aI52
aI12
aI24
aI31
aI95
aI20
aI32
aI17
aI12
aI49
aI17
aI90
aI25
aI29
aI53
aI18
aI42
aI28
aI40
aI30
aI25
aI15
aI68
aI11
aI14
aI21
aI37
aI20
aI42
aI19
aI30
aI69
aI19
aI38
aI38
aI40
aI24
aI39
aI36
aI15
aI27
aI76
aI41
aI13
aI18
aI43
aI2
aI4
aI5
aI13
aI6
aI0
aI2
aI2
aI0
aI1
aI2
aI0
aI1
aI1
aI0
aI0
aI0
aI0
aI0
aI0
aI0
aI0
aI0
aI1
aI0
aI0
aI0
aI0
aI0
asS'PursueBehavior'
p10
(lp11
I23
aI2
aI2
aI16
aI3
aI0
aI18
aI14
aI14
aI18
aI21
aI18
aI11
aI30
aI63
aI20
aI56
aI12
aI16
aI12
aI64
aI22
aI5
aI0
aI1
aI1
aI20
aI22
aI45
aI10
aI34
aI57
aI5
aI2
aI0
aI4
aI0
aI4
aI2
aI1
aI0
aI0
aI1
aI1
aI4
aI2
aI1
aI0
aI1
aI2
aI0
aI4
aI3
aI0
aI2
aI0
aI4
aI0
aI4
aI0
aI1
aI0
aI4
aI2
aI2
aI2
aI2
aI0
aI3
aI1
aI1
aI5
aI1
aI0
aI0
aI1
aI1
aI0
aI0
aI1
aI1
aI4
aI12
aI1
aI7
aI10
aI25
aI40
aI27
aI50
aI40
aI38
aI12
aI28
aI22
aI20
aI77
aI25
aI22
aI49
aI40
aI10
aI83
aI109
aI34
aI76
aI34
aI41
aI15
aI73
aI16
aI116
aI33
aI50
aI40
asS'SeekBehavior'
p12
(lp13
I19
aI0
aI0
aI3
aI0
aI0
aI2
aI1
aI0
aI0
aI0
aI0
aI1
aI2
aI15
aI1
aI5
aI17
aI0
aI0
aI1
aI1
aI1
aI0
aI0
aI1
aI1
aI0
aI10
aI0
aI1
aI6
aI13
aI4
aI1
aI11
aI20
aI18
aI28
aI5
aI5
aI0
aI1
aI3
aI18
aI6
aI1
aI0
aI1
aI3
aI1
aI34
aI0
aI0
aI4
aI1
aI39
aI1
aI1
aI1
aI0
aI0
aI4
aI0
aI1
aI0
aI0
aI0
aI1
aI1
aI0
aI22
aI0
aI2
aI1
aI0
aI0
aI0
aI2
aI0
aI0
aI2
aI7
aI20
aI44
aI12
aI1
aI1
aI3
aI3
aI35
aI0
aI1
aI2
aI1
aI1
aI1
aI0
aI0
aI1
aI0
aI0
aI0
aI0
aI0
aI0
aI0
aI0
aI0
aI12
aI0
aI0
aI0
aI0
aI0
assI2
(dp14
S'FleeBehavior'
p15
(lp16
I29
aI30
aI21
aI27
aI11
aI23
aI58
aI1
aI0
aI3
aI0
aI1
aI0
aI1
aI8
aI0
aI2
aI4
aI0
aI1
aI3
aI2
aI0
aI0
aI3
aI0
aI30
aI1
aI8
aI0
aI2
aI11
aI0
aI0
aI1
aI1
aI3
aI20
aI47
aI16
aI52
aI11
aI22
aI35
aI92
aI26
aI30
aI17
aI13
aI49
aI14
aI110
aI21
aI27
aI53
aI16
aI47
aI25
aI15
aI2
aI2
aI1
aI18
aI0
aI2
aI1
aI2
aI4
aI7
aI1
aI1
aI16
aI1
aI3
aI1
aI5
aI14
aI24
aI33
aI5
aI26
aI71
aI51
aI3
aI30
aI54
aI27
aI43
aI34
aI54
aI43
aI1
aI1
aI2
aI0
aI1
aI4
aI0
aI5
aI1
aI5
aI1
aI0
aI0
aI3
aI0
aI0
aI0
aI1
aI0
aI0
aI0
aI0
aI4
aI1
asS'PursueBehavior'
p17
(lp18
I19
aI0
aI0
aI4
aI0
aI2
aI2
aI0
aI0
aI1
aI0
aI0
aI0
aI0
aI20
aI1
aI2
aI0
aI2
aI2
aI0
aI0
aI0
aI0
aI0
aI0
aI11
aI2
aI27
aI0
aI0
aI36
aI2
aI0
aI0
aI5
aI2
aI2
aI2
aI0
aI2
aI0
aI0
aI0
aI22
aI1
aI4
aI0
aI0
aI1
aI3
aI15
aI3
aI2
aI3
aI2
aI36
aI4
aI29
aI27
aI22
aI14
aI57
aI11
aI15
aI22
aI37
aI16
aI38
aI18
aI30
aI76
aI18
aI37
aI36
aI36
aI11
aI14
aI4
aI11
aI2
aI7
aI6
aI28
aI35
aI10
aI1
aI0
aI0
aI8
aI34
aI1
aI0
aI2
aI0
aI1
aI3
aI1
aI0
aI0
aI0
aI0
aI0
aI0
aI0
aI0
aI0
aI0
aI0
aI0
aI0
aI0
aI0
aI0
aI0
asS'SeekBehavior'
p19
(lp20
I6
aI5
aI4
aI39
aI0
aI1
aI5
aI15
aI14
aI15
aI21
aI17
aI12
aI32
aI58
aI21
aI61
aI45
aI20
aI12
aI66
aI22
aI13
aI12
aI14
aI40
aI76
aI22
aI48
aI10
aI34
aI57
aI23
aI48
aI27
aI83
aI16
aI7
aI9
aI1
aI3
aI1
aI3
aI0
aI3
aI1
aI0
aI0
aI1
aI3
aI0
aI2
aI4
aI0
aI3
aI0
aI1
aI0
aI1
aI1
aI2
aI0
aI1
aI1
aI0
aI0
aI0
aI0
aI0
aI2
aI0
aI4
aI1
aI0
aI2
aI0
aI0
aI1
aI1
aI0
aI0
aI4
aI3
aI3
aI4
aI1
aI0
aI2
aI1
aI4
aI4
aI36
aI14
aI28
aI22
aI20
aI73
aI24
aI18
aI50
aI35
aI9
aI83
aI109
aI31
aI76
aI34
aI41
aI14
aI86
aI16
aI115
aI33
aI46
aI38
assI3
(dp21
S'FleeBehavior'
p22
(lp23
I32
aI25
aI23
aI41
aI0
aI0
aI5
aI1
aI0
aI0
aI0
aI0
aI1
aI3
aI8
aI1
aI3
aI4
aI1
aI0
aI3
aI22
aI8
aI9
aI14
aI12
aI17
aI0
aI13
aI0
aI0
aI5
aI4
aI9
aI23
aI24
aI0
aI1
aI5
aI3
aI29
aI0
aI1
aI9
aI34
aI18
aI7
aI0
aI0
aI3
aI0
aI15
aI0
aI2
aI4
aI0
aI6
aI0
aI2
aI2
aI0
aI0
aI3
aI2
aI0
aI2
aI4
aI0
aI1
aI0
aI1
aI29
aI0
aI2
aI0
aI1
aI1
aI2
aI3
aI0
aI1
aI2
aI3
aI3
aI16
aI7
aI1
aI2
aI2
aI4
aI29
aI2
aI1
aI2
aI1
aI0
aI4
aI0
aI1
aI1
aI0
aI0
aI0
aI0
aI0
aI0
aI0
aI0
aI0
aI0
aI0
aI0
aI0
aI0
aI0
asS'PursueBehavior'
p24
(lp25
I13
aI9
aI0
aI10
aI11
aI24
aI42
aI15
aI14
aI18
aI21
aI16
aI11
aI27
aI56
aI21
aI60
aI33
aI21
aI15
aI63
aI1
aI4
aI3
aI2
aI25
aI37
aI25
aI64
aI8
aI6
aI60
aI7
aI35
aI4
aI55
aI21
aI27
aI51
aI14
aI22
aI12
aI24
aI26
aI65
aI9
aI26
aI15
aI14
aI45
aI15
aI96
aI25
aI26
aI52
aI17
aI77
aI27
aI41
aI28
aI26
aI13
aI68
aI10
aI16
aI21
aI34
aI19
aI43
aI20
aI30
aI66
aI19
aI36
aI37
aI38
aI22
aI34
aI34
aI16
aI25
aI80
aI55
aI30
aI49
aI56
aI27
aI40
aI30
aI58
aI40
aI36
aI14
aI28
aI21
aI20
aI74
aI25
aI20
aI47
aI40
aI10
aI83
aI109
aI34
aI76
aI34
aI41
aI15
aI86
aI16
aI115
aI33
aI49
aI39
asS'SeekBehavior'
p26
(lp27
I9
aI1
aI2
aI19
aI0
aI2
aI18
aI0
aI0
aI0
aI0
aI2
aI0
aI3
aI22
aI0
aI2
aI12
aI0
aI0
aI3
aI1
aI1
aI0
aI1
aI3
aI63
aI0
aI6
aI2
aI30
aI39
aI14
aI4
aI1
aI10
aI0
aI1
aI1
aI0
aI6
aI0
aI0
aI0
aI17
aI1
aI1
aI1
aI0
aI5
aI2
aI16
aI3
aI1
aI3
aI1
aI1
aI2
aI2
aI0
aI0
aI2
aI4
aI0
aI1
aI0
aI1
aI1
aI1
aI1
aI0
aI1
aI1
aI2
aI2
aI2
aI1
aI3
aI1
aI0
aI2
aI0
aI2
aI1
aI3
aI2
aI0
aI3
aI3
aI4
aI12
aI0
aI0
aI2
aI0
aI1
aI2
aI0
aI1
aI3
aI0
aI0
aI0
aI0
aI0
aI0
aI0
aI0
aI0
aI0
aI0
aI0
aI0
aI0
aI0
assI4
(dp28
S'FleeBehavior'
p29
(lp30
I25
aI4
aI0
aI16
aI11
aI17
aI35
aI14
aI12
aI18
aI20
aI18
aI11
aI30
aI63
aI21
aI59
aI17
aI0
aI1
aI0
aI0
aI0
aI0
aI0
aI0
aI8
aI1
aI7
aI1
aI1
aI20
aI16
aI7
aI25
aI76
aI17
aI27
aI55
aI13
aI32
aI12
aI23
aI31
aI67
aI27
aI32
aI14
aI13
aI48
aI16
aI83
aI24
aI27
aI52
aI17
aI45
aI28
aI40
aI27
aI24
aI13
aI69
aI12
aI15
aI23
aI34
aI18
aI41
aI16
aI24
aI75
aI0
aI2
aI0
aI0
aI2
aI1
aI2
aI1
aI1
aI1
aI3
aI1
aI11
aI53
aI27
aI42
aI32
aI56
aI41
aI2
aI0
aI1
aI2
aI1
aI2
aI1
aI1
aI0
aI0
aI0
aI0
aI0
aI0
aI0
aI0
aI0
aI0
aI1
aI0
aI0
aI0
aI0
aI0
asS'PursueBehavior'
p31
(lp32
I19
aI1
aI0
aI0
aI0
aI1
aI8
aI1
aI0
aI0
aI0
aI0
aI0
aI1
aI14
aI1
aI1
aI0
aI2
aI0
aI0
aI3
aI1
aI1
aI0
aI3
aI20
aI0
aI23
aI3
aI25
aI45
aI2
aI3
aI3
aI5
aI2
aI2
aI1
aI1
aI22
aI0
aI2
aI2
aI39
aI0
aI1
aI0
aI1
aI5
aI0
aI40
aI1
aI2
aI2
aI0
aI37
aI0
aI5
aI1
aI1
aI0
aI1
aI0
aI0
aI0
aI3
aI0
aI1
aI1
aI0
aI12
aI0
aI2
aI1
aI1
aI4
aI2
aI0
aI0
aI0
aI3
aI2
aI1
aI2
aI3
aI1
aI2
aI1
aI2
aI2
aI3
aI0
aI0
aI1
aI0
aI2
aI0
aI1
aI2
aI0
aI0
aI0
aI0
aI0
aI0
aI0
aI0
aI0
aI0
aI0
aI0
aI0
aI0
aI0
asS'SeekBehavior'
p33
(lp34
I10
aI30
aI25
aI54
aI0
aI8
aI22
aI1
aI1
aI0
aI1
aI0
aI1
aI1
aI9
aI0
aI5
aI31
aI20
aI14
aI69
aI21
aI12
aI11
aI16
aI37
aI89
aI23
aI52
aI6
aI10
aI39
aI7
aI38
aI0
aI8
aI1
aI0
aI1
aI3
aI3
aI0
aI0
aI1
aI10
aI1
aI1
aI2
aI0
aI0
aI1
aI4
aI2
aI0
aI5
aI1
aI2
aI1
aI0
aI2
aI1
aI2
aI5
aI0
aI1
aI0
aI1
aI2
aI3
aI3
aI7
aI8
aI20
aI35
aI38
aI40
aI18
aI36
aI36
aI15
aI27
aI78
aI55
aI32
aI55
aI9
aI0
aI1
aI2
aI8
aI38
aI32
aI15
aI31
aI19
aI20
aI75
aI24
aI20
aI49
aI40
aI10
aI83
aI109
aI33
aI76
aI34
aI41
aI15
aI84
aI16
aI115
aI33
aI49
aI39
asss.