(dp0
S'learn_scores'
p1
(lp2
F-463.0
aF-359.0
aF-434.0
aF-410.0
aF-460.0
asS'test_scores'
p3
(lp4
F-410.0
asS'behavior_count'
p5
(dp6
I1
(dp7
S'FleeBehavior'
p8
(lp9
I2
aI5
aI6
aI39
aI29
aI51
asS'PursueBehavior'
p10
(lp11
I9
aI37
aI3
aI1
aI1
aI0
asS'SeekBehavior'
p12
(lp13
I2
aI27
aI35
aI1
aI1
aI0
assI2
(dp14
S'FleeBehavior'
p15
(lp16
I10
aI30
aI1
aI0
aI1
aI0
asS'PursueBehavior'
p17
(lp18
I2
aI34
aI0
aI7
aI26
aI51
asS'SeekBehavior'
p19
(lp20
I1
aI5
aI43
aI33
aI4
aI0
assI3
(dp21
S'FleeBehavior'
p22
(lp23
I10
aI39
aI1
aI1
aI0
aI0
asS'PursueBehavior'
p24
(lp25
I2
aI28
aI29
aI0
aI2
aI0
asS'SeekBehavior'
p26
(lp27
I1
aI2
aI14
aI39
aI28
aI51
assI4
(dp28
S'FleeBehavior'
p29
(lp30
I6
aI3
aI10
aI36
aI30
aI50
asS'PursueBehavior'
p31
(lp32
I4
aI53
aI33
aI2
aI0
aI0
asS'SeekBehavior'
p33
(lp34
I3
aI13
aI1
aI2
aI0
aI0
asss.