(dp0
S'learn_scores'
p1
(lp2
F-390.0
aF-464.0
aF-453.0
aF-683.0
aF-490.0
aF-499.0
aF-495.0
aF-382.0
aF-457.0
aF-469.0
aF-431.0
aF-411.0
aF-513.0
aF-430.0
aF-544.0
aF-489.0
aF-460.0
aF-465.0
aF-471.0
aF-554.0
aF-434.0
aF-470.0
aF-454.0
aF-495.0
aF-411.0
aF-475.0
aF-505.0
aF-480.0
aF-397.0
aF-373.0
aF-469.0
aF-420.0
aF-447.0
aF-431.0
aF-415.0
aF-411.0
aF-406.0
aF-471.0
aF-535.0
aF-464.0
aF-393.0
aF-358.0
aF-509.0
aF-451.0
aF-414.0
aF-446.0
aF-446.0
aF-366.0
aF-336.0
aF-611.0
aF-488.0
aF-488.0
aF-498.0
aF-428.0
aF-448.0
aF-415.0
aF-539.0
aF-556.0
aF-383.0
aF-407.0
aF-449.0
aF-471.0
aF-360.0
aF-363.0
aF-368.0
aF-491.0
aF-429.0
aF-529.0
aF-485.0
aF-407.0
aF-447.0
aF-455.0
aF-218.0
aF-410.0
aF-448.0
aF-535.0
aF-361.0
aF-426.0
aF-449.0
aF-427.0
aF-495.0
aF-427.0
aF-443.0
aF-392.0
aF-495.0
aF-464.0
aF-578.0
aF-387.0
aF-389.0
aF-503.0
aF-382.0
aF-559.0
aF-498.0
aF-475.0
aF-510.0
aF-455.0
aF-425.0
aF-509.0
aF-427.0
aF-448.0
asS'test_scores'
p3
(lp4
F-376.0
aF-514.0
aF-445.0
aF-507.0
aF-494.0
aF-464.0
aF-427.0
aF-490.0
aF-467.0
aF-384.0
aF-465.0
aF-472.0
aF-444.0
aF-424.0
aF-426.0
asS'behavior_count'
p5
(dp6
I1
(dp7
S'FleeBehavior'
p8
(lp9
I35
aI4
aI3
aI144
aI34
aI111
aI19
aI0
aI0
aI0
aI55
aI17
aI3
aI4
aI2
aI4
aI3
aI1
aI1
aI9
aI5
aI36
aI0
aI3
aI15
aI5
aI7
aI0
aI2
aI9
aI4
aI15
aI13
aI11
aI156
aI1
aI5
aI5
aI7
aI1
aI2
aI2
aI4
aI4
aI83
aI1
aI1
aI5
aI15
aI109
aI1
aI9
aI51
aI4
aI2
aI89
aI108
aI170
aI14
aI60
aI11
aI37
aI99
aI95
aI49
aI69
aI79
aI68
aI48
aI45
aI305
aI6
aI66
aI20
aI4
aI97
aI74
aI174
aI83
aI80
aI58
aI41
aI66
aI33
aI61
aI1
aI168
aI8
aI2
aI15
aI31
aI146
aI57
aI75
aI28
aI26
aI50
aI55
aI24
aI22
aI129
aI81
aI21
aI104
aI253
aI35
aI39
aI105
aI61
aI99
aI12
aI58
aI60
aI46
aI37
asS'PursueBehavior'
p10
(lp11
I37
aI14
aI2
aI79
aI81
aI11
aI17
aI55
aI46
aI30
aI167
aI17
aI3
aI5
aI2
aI3
aI27
aI2
aI4
aI9
aI24
aI47
aI0
aI7
aI24
aI44
aI153
aI26
aI18
aI3
aI3
aI0
aI1
aI2
aI69
aI10
aI82
aI74
aI67
aI1
aI11
aI49
aI130
aI119
aI200
aI0
aI3
aI7
aI9
aI85
aI4
aI155
aI44
aI4
aI5
aI4
aI7
aI10
aI2
aI2
aI1
aI4
aI8
aI2
aI27
aI1
aI18
aI37
aI83
aI4
aI28
aI9
aI76
aI30
aI16
aI8
aI6
aI17
aI7
aI1
aI1
aI39
aI5
aI5
aI3
aI2
aI107
aI24
aI3
aI27
aI18
aI11
aI3
aI2
aI4
aI3
aI2
aI8
aI3
aI2
aI0
aI0
aI0
aI0
aI0
aI0
aI0
aI0
aI0
aI0
aI0
aI0
aI0
aI0
aI0
asS'SeekBehavior'
p12
(lp13
I19
aI86
aI89
aI91
aI35
aI48
aI60
aI7
aI2
aI0
aI100
aI38
aI77
aI152
aI151
aI102
aI30
aI32
aI46
aI236
aI76
aI107
aI84
aI86
aI122
aI27
aI46
aI25
aI37
aI81
aI43
aI56
aI33
aI29
aI91
aI41
aI30
aI53
aI72
aI62
aI130
aI17
aI36
aI59
aI61
aI66
aI43
aI165
aI93
aI137
aI93
aI75
aI64
aI101
aI72
aI33
aI85
aI157
aI97
aI26
aI28
aI31
aI104
aI36
aI103
aI32
aI83
aI95
aI24
aI48
aI155
aI61
aI106
aI31
aI38
aI51
aI52
aI126
aI70
aI47
aI17
aI68
aI73
aI75
aI82
aI72
aI124
aI76
aI74
aI42
aI64
aI43
aI19
aI29
aI38
aI47
aI43
aI46
aI81
aI35
aI58
aI14
aI24
aI54
aI162
aI30
aI29
aI46
aI47
aI76
aI33
aI64
aI15
aI9
aI9
assI2
(dp14
S'FleeBehavior'
p15
(lp16
I21
aI7
aI9
aI159
aI5
aI22
aI13
aI59
aI3
aI0
aI106
aI1
aI2
aI6
aI26
aI37
aI50
aI29
aI12
aI194
aI76
aI136
aI8
aI20
aI3
aI1
aI68
aI7
aI3
aI2
aI1
aI3
aI2
aI1
aI15
aI3
aI73
aI21
aI27
aI14
aI39
aI7
aI48
aI3
aI90
aI34
aI1
aI6
aI8
aI89
aI31
aI123
aI126
aI58
aI1
aI4
aI44
aI185
aI43
aI36
aI21
aI48
aI110
aI67
aI125
aI54
aI112
aI168
aI97
aI74
aI295
aI37
aI82
aI29
aI47
aI12
aI5
aI66
aI35
aI3
aI3
aI4
aI7
aI1
aI10
aI53
aI201
aI59
aI34
aI70
aI60
aI145
aI38
aI45
aI28
aI1
aI2
aI7
aI3
aI5
aI0
aI0
aI0
aI0
aI39
aI0
aI0
aI0
aI0
aI0
aI0
aI0
aI0
aI0
aI0
asS'PursueBehavior'
p17
(lp18
I48
aI76
aI72
aI79
aI5
aI32
aI48
aI0
aI1
aI1
aI57
aI61
aI68
aI71
aI46
aI32
aI3
aI0
aI3
aI7
aI5
aI15
aI15
aI22
aI98
aI32
aI79
aI23
aI35
aI87
aI37
aI46
aI37
aI38
aI236
aI41
aI4
aI18
aI29
aI12
aI26
aI15
aI28
aI112
aI123
aI14
aI30
aI139
aI46
aI112
aI28
aI13
aI3
aI12
aI38
aI40
aI107
aI12
aI29
aI3
aI1
aI2
aI12
aI5
aI6
aI5
aI8
aI5
aI6
aI1
aI43
aI21
aI85
aI4
aI3
aI73
aI23
aI75
aI69
aI106
aI35
aI89
aI102
aI67
aI103
aI4
aI15
aI26
aI4
aI2
aI3
aI9
aI9
aI23
aI14
aI40
aI75
aI80
aI77
aI28
aI93
aI50
aI34
aI125
aI296
aI46
aI49
aI107
aI83
aI147
aI26
aI96
aI36
aI24
aI35
asS'SeekBehavior'
p19
(lp20
I22
aI21
aI12
aI76
aI140
aI116
aI35
aI3
aI44
aI29
aI158
aI10
aI13
aI84
aI83
aI40
aI7
aI6
aI36
aI53
aI24
aI39
aI61
aI53
aI60
aI43
aI59
aI20
aI19
aI4
aI12
aI21
aI8
aI2
aI65
aI8
aI40
aI93
aI90
aI38
aI78
aI46
aI94
aI67
aI131
aI18
aI16
aI31
aI63
aI130
aI39
aI103
aI30
aI38
aI40
aI82
aI49
aI140
aI41
aI48
aI17
aI22
aI89
aI61
aI47
aI42
aI59
aI26
aI52
aI22
aI150
aI18
aI81
aI48
aI8
aI71
aI103
aI176
aI55
aI18
aI38
aI55
aI35
aI45
aI32
aI17
aI183
aI22
aI41
aI11
aI50
aI46
aI32
aI38
aI28
aI34
aI18
aI22
aI28
aI25
aI93
aI45
aI11
aI33
aI79
aI19
aI19
aI43
aI24
aI28
aI19
aI26
aI38
aI31
aI11
assI3
(dp21
S'FleeBehavior'
p22
(lp23
I12
aI70
aI33
aI199
aI103
aI50
aI18
aI48
aI25
aI13
aI113
aI16
aI42
aI67
aI16
aI65
aI33
aI35
aI40
aI196
aI45
aI81
aI25
aI89
aI152
aI62
aI181
aI47
aI56
aI88
aI42
aI63
aI42
aI38
aI217
aI49
aI105
aI70
aI65
aI21
aI55
aI25
aI63
aI58
aI106
aI37
aI23
aI76
aI54
aI171
aI54
aI93
aI82
aI37
aI67
aI118
aI87
aI111
aI63
aI38
aI25
aI70
aI196
aI126
aI152
aI90
aI140
aI176
aI147
aI86
aI248
aI68
aI58
aI29
aI8
aI41
aI43
aI179
aI51
aI62
aI22
aI25
aI65
aI27
aI45
aI9
aI113
aI15
aI63
aI18
aI66
aI63
aI29
aI24
aI22
aI18
aI38
aI81
aI16
aI27
aI47
aI33
aI16
aI34
aI56
aI21
aI16
aI70
aI32
aI67
aI12
aI47
aI23
aI26
aI32
asS'PursueBehavior'
p24
(lp25
I43
aI31
aI50
aI56
aI30
aI106
aI1
aI1
aI3
aI0
aI31
aI52
aI37
aI90
aI122
aI42
aI25
aI0
aI9
aI49
aI4
aI46
aI31
aI4
aI6
aI5
aI7
aI1
aI1
aI4
aI8
aI3
aI4
aI0
aI70
aI2
aI6
aI29
aI6
aI0
aI4
aI6
aI4
aI50
aI76
aI28
aI22
aI91
aI58
aI150
aI40
aI64
aI35
aI5
aI1
aI2
aI6
aI101
aI5
aI2
aI2
aI0
aI5
aI2
aI5
aI2
aI12
aI13
aI5
aI6
aI85
aI4
aI93
aI51
aI49
aI104
aI83
aI122
aI89
aI5
aI0
aI4
aI5
aI6
aI7
aI1
aI14
aI9
aI3
aI1
aI4
aI12
aI1
aI26
aI5
aI3
aI2
aI3
aI7
aI0
aI0
aI0
aI0
aI0
aI0
aI0
aI0
aI0
aI0
aI0
aI0
aI0
aI0
aI0
aI0
asS'SeekBehavior'
p26
(lp27
I36
aI3
aI10
aI58
aI17
aI13
aI77
aI13
aI19
aI16
aI177
aI4
aI4
aI3
aI16
aI2
aI2
aI0
aI2
aI9
aI56
aI63
aI28
aI2
aI3
aI8
aI17
aI2
aI0
aI1
aI0
aI4
aI1
aI3
aI28
aI1
aI6
aI32
aI74
aI43
aI84
aI37
aI103
aI73
aI162
aI1
aI2
aI9
aI4
aI10
aI4
aI82
aI41
aI66
aI10
aI5
aI107
aI124
aI45
aI47
aI12
aI1
aI9
aI5
aI21
aI9
aI27
aI10
aI3
aI5
aI155
aI4
aI97
aI0
aI1
aI11
aI5
aI16
aI19
aI60
aI53
aI118
aI74
aI79
aI93
aI64
aI271
aI83
aI13
aI64
aI43
aI125
aI48
aI55
aI43
aI54
aI55
aI25
aI84
aI31
aI139
aI62
aI29
aI123
aI358
aI44
aI52
aI80
aI75
aI108
aI33
aI75
aI51
aI28
aI14
asss.