(dp0
S'learn_scores'
p1
(lp2
F-449.0
aF-508.0
aF-414.0
aF-453.0
aF-469.0
aF-414.0
aF-481.0
aF-449.0
aF-476.0
aF-338.0
aF-428.0
aF-357.0
aF-469.0
aF-472.0
aF-449.0
aF-478.0
aF-431.0
aF-439.0
aF-530.0
aF-536.0
aF-526.0
aF-452.0
aF-448.0
aF-638.0
aF-424.0
aF-461.0
aF-434.0
aF-628.0
aF-630.0
aF-450.0
aF-441.0
aF-459.0
aF-415.0
aF-462.0
aF-462.0
aF-495.0
aF-496.0
aF-482.0
aF-415.0
aF-467.0
aF-307.0
aF-497.0
aF-539.0
aF-500.0
aF-436.0
aF-417.0
aF-426.0
aF-526.0
aF-492.0
aF-478.0
aF-501.0
aF-491.0
aF-421.0
aF-480.0
aF-423.0
aF-467.0
aF-477.0
aF-413.0
aF-457.0
aF-405.0
aF-368.0
aF-407.0
aF-589.0
aF-419.0
aF-507.0
aF-462.0
aF-464.0
aF-294.0
aF-481.0
aF-428.0
aF-509.0
aF-594.0
aF-622.0
aF-437.0
aF-407.0
aF-582.0
aF-467.0
aF-444.0
aF-492.0
aF-484.0
aF-468.0
aF-464.0
aF-520.0
aF-552.0
aF-529.0
aF-343.0
aF-497.0
aF-431.0
aF-397.0
aF-483.0
aF-300.0
aF-537.0
aF-483.0
aF-428.0
aF-483.0
aF-416.0
aF-475.0
aF-573.0
aF-494.0
aF-441.0
asS'test_scores'
p3
(lp4
F-459.0
aF-427.0
aF-515.0
aF-509.0
aF-552.0
aF-484.0
aF-509.0
aF-431.0
aF-477.0
aF-469.0
aF-395.0
aF-356.0
aF-478.0
aF-577.0
aF-541.0
asS'behavior_count'
p5
(dp6
I1
(dp7
S'FleeBehavior'
p8
(lp9
I10
aI15
aI142
aI26
aI159
aI42
aI64
aI105
aI260
aI56
aI56
aI73
aI62
aI62
aI54
aI113
aI80
aI224
aI129
aI74
aI9
aI20
aI8
aI58
aI69
aI49
aI152
aI231
aI137
aI40
aI16
aI26
aI36
aI39
aI27
aI95
aI79
aI47
aI121
aI121
aI316
aI38
aI145
aI81
aI53
aI25
aI112
aI167
aI56
aI35
aI136
aI223
aI58
aI116
aI10
aI46
aI27
aI42
aI91
aI27
aI102
aI124
aI122
aI48
aI125
aI138
aI41
aI98
aI40
aI33
aI22
aI162
aI128
aI14
aI25
aI88
aI38
aI89
aI59
aI36
aI66
aI45
aI72
aI85
aI65
aI55
aI64
aI63
aI135
aI50
aI74
aI96
aI45
aI94
aI20
aI71
aI106
aI121
aI44
aI23
aI46
aI32
aI60
aI59
aI89
aI49
aI49
aI10
aI114
aI47
aI66
aI46
aI34
aI85
aI43
asS'PursueBehavior'
p10
(lp11
I30
aI138
aI19
aI4
aI8
aI3
aI5
aI51
aI81
aI0
aI0
aI1
aI5
aI65
aI115
aI2
aI2
aI50
aI106
aI2
aI2
aI0
aI6
aI14
aI3
aI1
aI77
aI97
aI63
aI1
aI2
aI4
aI5
aI1
aI3
aI3
aI4
aI2
aI2
aI2
aI45
aI4
aI18
aI1
aI1
aI2
aI20
aI16
aI2
aI3
aI8
aI7
aI0
aI5
aI5
aI28
aI19
aI2
aI122
aI66
aI4
aI13
aI66
aI22
aI6
aI22
aI2
aI49
aI61
aI71
aI103
aI95
aI202
aI49
aI72
aI138
aI28
aI163
aI68
aI19
aI79
aI9
aI23
aI93
aI205
aI8
aI7
aI3
aI32
aI7
aI55
aI15
aI50
aI73
aI20
aI3
aI5
aI84
aI0
aI65
aI4
aI86
aI146
aI191
aI113
aI45
aI31
aI12
aI54
aI43
aI0
aI71
aI15
aI223
aI139
asS'SeekBehavior'
p12
(lp13
I20
aI115
aI34
aI24
aI2
aI0
aI3
aI23
aI75
aI3
aI2
aI3
aI2
aI5
aI1
aI4
aI0
aI35
aI96
aI71
aI156
aI23
aI24
aI247
aI3
aI1
aI85
aI110
aI251
aI10
aI103
aI80
aI45
aI3
aI73
aI78
aI3
aI3
aI3
aI5
aI57
aI45
aI126
aI9
aI23
aI11
aI124
aI14
aI5
aI1
aI7
aI2
aI4
aI10
aI28
aI4
aI2
aI0
aI5
aI2
aI3
aI11
aI71
aI20
aI6
aI43
aI22
aI87
aI10
aI5
aI5
aI18
aI13
aI4
aI1
aI6
aI2
aI13
aI5
aI0
aI4
aI1
aI6
aI65
aI29
aI81
aI66
aI16
aI21
aI17
aI72
aI37
aI49
aI32
aI4
aI2
aI5
aI9
aI1
aI4
aI0
aI0
aI0
aI0
aI0
aI0
aI0
aI0
aI0
aI0
aI0
aI0
aI0
aI0
aI0
assI2
(dp14
S'FleeBehavior'
p15
(lp16
I32
aI144
aI131
aI7
aI86
aI5
aI41
aI52
aI247
aI54
aI54
aI73
aI65
aI89
aI41
aI111
aI71
aI199
aI282
aI59
aI80
aI38
aI5
aI89
aI34
aI34
aI118
aI205
aI129
aI45
aI21
aI24
aI45
aI39
aI99
aI152
aI80
aI49
aI105
aI119
aI271
aI49
aI62
aI50
aI58
aI34
aI240
aI121
aI54
aI36
aI89
aI104
aI42
aI20
aI23
aI29
aI15
aI31
aI93
aI48
aI68
aI34
aI76
aI23
aI29
aI96
aI24
aI137
aI48
aI44
aI72
aI55
aI117
aI47
aI32
aI104
aI32
aI84
aI38
aI29
aI69
aI37
aI51
aI126
aI180
aI38
aI87
aI74
aI67
aI65
aI96
aI37
aI30
aI132
aI22
aI7
aI60
aI39
aI39
aI27
aI32
aI33
aI54
aI41
aI78
aI46
aI27
aI19
aI30
aI6
aI5
aI43
aI15
aI29
aI60
asS'PursueBehavior'
p17
(lp18
I15
aI95
aI45
aI43
aI44
aI8
aI20
aI108
aI103
aI3
aI3
aI1
aI4
aI40
aI119
aI3
aI2
aI45
aI20
aI35
aI43
aI1
aI2
aI10
aI2
aI2
aI60
aI127
aI144
aI0
aI64
aI84
aI35
aI2
aI3
aI16
aI4
aI1
aI18
aI5
aI77
aI23
aI95
aI15
aI10
aI2
aI13
aI72
aI5
aI1
aI55
aI74
aI16
aI105
aI19
aI2
aI32
aI12
aI93
aI46
aI28
aI68
aI173
aI64
aI79
aI99
aI39
aI87
aI56
aI51
aI26
aI97
aI30
aI7
aI33
aI71
aI2
aI44
aI46
aI2
aI12
aI0
aI3
aI6
aI14
aI44
aI30
aI6
aI63
aI3
aI7
aI5
aI4
aI10
aI1
aI2
aI2
aI6
aI2
aI2
aI0
aI0
aI0
aI0
aI0
aI0
aI0
aI0
aI0
aI0
aI0
aI0
aI0
aI0
aI0
asS'SeekBehavior'
p19
(lp20
I12
aI29
aI18
aI4
aI39
aI32
aI10
aI19
aI66
aI2
aI1
aI3
aI0
aI3
aI10
aI5
aI9
aI65
aI29
aI53
aI44
aI4
aI31
aI220
aI38
aI15
aI136
aI106
aI178
aI6
aI36
aI1
aI5
aI2
aI1
aI8
aI2
aI2
aI3
aI4
aI70
aI15
aI132
aI25
aI9
aI1
aI3
aI4
aI4
aI2
aI7
aI54
aI3
aI5
aI1
aI46
aI1
aI1
aI32
aI1
aI13
aI45
aI10
aI3
aI29
aI8
aI1
aI10
aI7
aI13
aI32
aI123
aI196
aI13
aI33
aI57
aI33
aI137
aI48
aI23
aI67
aI18
aI46
aI111
aI105
aI62
aI20
aI2
aI57
aI6
aI98
aI105
aI109
aI57
aI21
aI67
aI53
aI168
aI4
aI63
aI17
aI85
aI151
aI209
aI124
aI48
aI52
aI3
aI137
aI84
aI61
aI73
aI33
aI279
aI122
assI3
(dp21
S'FleeBehavior'
p22
(lp23
I8
aI51
aI15
aI0
aI4
aI2
aI2
aI5
aI77
aI3
aI7
aI74
aI58
aI110
aI68
aI21
aI14
aI47
aI77
aI4
aI6
aI1
aI1
aI20
aI3
aI3
aI12
aI68
aI124
aI8
aI5
aI3
aI5
aI1
aI0
aI9
aI4
aI3
aI4
aI3
aI70
aI4
aI18
aI62
aI47
aI22
aI189
aI171
aI30
aI30
aI141
aI179
aI50
aI66
aI11
aI1
aI2
aI5
aI8
aI25
aI12
aI34
aI56
aI5
aI6
aI6
aI2
aI11
aI6
aI2
aI2
aI6
aI57
aI1
aI4
aI9
aI5
aI10
aI3
aI1
aI43
aI2
aI1
aI34
aI150
aI57
aI57
aI31
aI94
aI61
aI151
aI53
aI63
aI59
aI0
aI2
aI3
aI15
aI3
aI42
aI0
aI36
aI27
aI81
aI31
aI27
aI47
aI0
aI3
aI30
aI0
aI0
aI20
aI41
aI91
asS'PursueBehavior'
p24
(lp25
I43
aI42
aI42
aI2
aI21
aI0
aI4
aI6
aI81
aI52
aI50
aI1
aI7
aI18
aI56
aI24
aI41
aI144
aI62
aI5
aI7
aI3
aI1
aI36
aI4
aI2
aI16
aI230
aI119
aI2
aI1
aI2
aI4
aI2
aI6
aI10
aI4
aI3
aI2
aI5
aI89
aI6
aI27
aI3
aI2
aI1
aI11
aI6
aI2
aI1
aI3
aI10
aI3
aI7
aI1
aI6
aI0
aI0
aI9
aI3
aI4
aI5
aI6
aI5
aI6
aI6
aI4
aI12
aI5
aI1
aI8
aI9
aI55
aI49
aI60
aI106
aI6
aI44
aI11
aI0
aI1
aI0
aI2
aI8
aI6
aI7
aI13
aI24
aI3
aI2
aI8
aI4
aI15
aI54
aI4
aI5
aI6
aI6
aI2
aI1
aI0
aI0
aI0
aI0
aI0
aI0
aI0
aI0
aI0
aI0
aI0
aI0
aI0
aI0
aI0
asS'SeekBehavior'
p26
(lp27
I8
aI175
aI137
aI51
aI144
aI42
aI65
aI168
aI258
aI3
aI1
aI2
aI4
aI4
aI46
aI73
aI26
aI118
aI191
aI137
aI153
aI39
aI36
aI262
aI67
aI46
aI286
aI140
aI207
aI40
aI115
aI104
aI76
aI40
aI96
aI156
aI78
aI46
aI120
aI119
aI258
aI77
aI244
aI25
aI28
aI14
aI56
aI19
aI30
aI7
aI7
aI43
aI8
aI57
aI31
aI70
aI46
aI38
aI201
aI67
aI92
aI108
aI197
aI79
aI125
aI190
aI58
aI211
aI100
aI105
aI119
aI260
aI230
aI17
aI33
aI117
aI56
aI210
aI118
aI53
aI104
aI52
aI97
aI200
aI143
aI80
aI67
aI26
aI90
aI10
aI42
aI90
aI65
aI85
aI39
aI69
aI106
aI192
aI40
aI49
aI49
aI82
aI178
aI168
aI171
aI67
aI32
aI21
aI164
aI60
aI66
aI116
aI28
aI267
aI90
asss.