(dp0
S'learn_scores'
p1
(lp2
F-596.0
aF-383.0
aF-424.0
aF-464.0
aF-504.0
aF-362.0
aF-499.0
aF-554.0
aF-517.0
aF-561.0
aF-490.0
aF-380.0
aF-388.0
aF-298.0
aF-443.0
aF-377.0
aF-480.0
aF-448.0
aF-396.0
aF-410.0
aF-459.0
aF-459.0
aF-445.0
aF-394.0
aF-485.0
aF-454.0
aF-410.0
aF-472.0
aF-433.0
aF-322.0
aF-442.0
aF-488.0
aF-427.0
aF-517.0
aF-469.0
aF-420.0
aF-357.0
aF-529.0
aF-429.0
aF-455.0
aF-472.0
aF-461.0
aF-526.0
aF-509.0
aF-521.0
aF-434.0
aF-564.0
aF-470.0
aF-429.0
aF-495.0
aF-484.0
aF-405.0
aF-513.0
aF-468.0
aF-369.0
aF-474.0
aF-402.0
aF-497.0
aF-466.0
aF-393.0
aF-451.0
aF-441.0
aF-419.0
aF-431.0
aF-461.0
aF-430.0
aF-435.0
aF-460.0
aF-485.0
aF-430.0
aF-445.0
aF-388.0
aF-522.0
aF-449.0
aF-464.0
aF-510.0
aF-475.0
aF-449.0
aF-497.0
aF-508.0
aF-443.0
aF-436.0
aF-517.0
aF-421.0
aF-408.0
aF-554.0
aF-413.0
aF-366.0
aF-452.0
aF-558.0
aF-406.0
aF-368.0
aF-826.0
aF-421.0
aF-390.0
aF-426.0
aF-480.0
aF-458.0
aF-555.0
aF-470.0
asS'test_scores'
p3
(lp4
F-506.0
aF-479.0
aF-517.0
aF-536.0
aF-388.0
aF-474.0
aF-343.0
aF-528.0
aF-496.0
aF-495.0
aF-524.0
aF-473.0
aF-386.0
aF-498.0
aF-480.0
asS'behavior_count'
p5
(dp6
I1
(dp7
S'FleeBehavior'
p8
(lp9
I66
aI20
aI3
aI31
aI69
aI74
aI73
aI63
aI101
aI47
aI3
aI27
aI24
aI65
aI3
aI9
aI2
aI1
aI0
aI2
aI10
aI4
aI4
aI4
aI2
aI31
aI46
aI34
aI10
aI142
aI63
aI2
aI2
aI5
aI2
aI4
aI4
aI3
aI1
aI2
aI3
aI2
aI17
aI78
aI13
aI1
aI94
aI15
aI47
aI17
aI76
aI9
aI130
aI30
aI16
aI2
aI46
aI35
aI75
aI14
aI4
aI4
aI23
aI7
aI15
aI38
aI35
aI2
aI1
aI96
aI4
aI5
aI20
aI3
aI10
aI14
aI33
aI24
aI10
aI76
aI1
aI1
aI29
aI10
aI38
aI123
aI7
aI13
aI6
aI63
aI3
aI8
aI126
aI32
aI35
aI3
aI8
aI3
aI61
aI14
aI3
aI1
aI44
aI179
aI104
aI1
aI68
aI35
aI47
aI23
aI65
aI1
aI209
aI0
aI21
asS'PursueBehavior'
p10
(lp11
I171
aI54
aI57
aI83
aI7
aI36
aI166
aI53
aI17
aI33
aI4
aI21
aI46
aI145
aI2
aI6
aI1
aI90
aI4
aI1
aI78
aI95
aI111
aI97
aI34
aI2
aI19
aI8
aI5
aI74
aI55
aI109
aI1
aI71
aI24
aI133
aI97
aI44
aI28
aI62
aI3
aI2
aI12
aI154
aI7
aI1
aI101
aI1
aI156
aI1
aI4
aI1
aI148
aI1
aI3
aI3
aI40
aI1
aI4
aI14
aI0
aI2
aI1
aI0
aI2
aI34
aI4
aI0
aI3
aI8
aI2
aI5
aI11
aI0
aI85
aI6
aI1
aI6
aI125
aI62
aI17
aI40
aI49
aI18
aI1
aI70
aI82
aI19
aI8
aI70
aI21
aI35
aI203
aI20
aI46
aI2
aI13
aI4
aI21
aI5
aI0
aI0
aI85
aI0
aI27
aI0
aI6
aI100
aI20
aI0
aI5
aI0
aI4
aI0
aI0
asS'SeekBehavior'
p12
(lp13
I100
aI29
aI4
aI20
aI19
aI52
aI110
aI159
aI10
aI151
aI84
aI153
aI69
aI199
aI68
aI83
aI68
aI47
aI92
aI48
aI231
aI50
aI11
aI24
aI59
aI12
aI25
aI21
aI79
aI166
aI35
aI37
aI54
aI111
aI24
aI43
aI47
aI163
aI61
aI22
aI67
aI48
aI238
aI157
aI111
aI53
aI240
aI104
aI307
aI27
aI94
aI56
aI126
aI58
aI110
aI50
aI86
aI21
aI77
aI126
aI38
aI126
aI36
aI74
aI55
aI58
aI27
aI39
aI51
aI76
aI50
aI119
aI252
aI47
aI10
aI131
aI22
aI30
aI33
aI41
aI35
aI55
aI89
aI93
aI30
aI111
aI34
aI134
aI79
aI126
aI133
aI85
aI257
aI80
aI110
aI62
aI29
aI32
aI103
aI72
aI114
aI68
aI119
aI17
aI107
aI74
aI229
aI134
aI90
aI73
aI95
aI33
aI133
aI59
aI40
assI2
(dp14
S'FleeBehavior'
p15
(lp16
I51
aI2
aI16
aI68
aI3
aI15
aI84
aI37
aI4
aI6
aI15
aI15
aI90
aI28
aI2
aI2
aI5
aI10
aI17
aI3
aI13
aI43
aI12
aI11
aI4
aI3
aI0
aI0
aI3
aI66
aI17
aI7
aI18
aI10
aI3
aI31
aI4
aI7
aI62
aI41
aI32
aI3
aI20
aI111
aI39
aI2
aI61
aI14
aI61
aI17
aI40
aI0
aI80
aI18
aI12
aI14
aI68
aI50
aI45
aI82
aI1
aI5
aI32
aI1
aI42
aI41
aI41
aI2
aI32
aI4
aI1
aI8
aI73
aI13
aI26
aI38
aI3
aI4
aI3
aI3
aI3
aI6
aI8
aI10
aI10
aI31
aI15
aI31
aI8
aI31
aI45
aI9
aI137
aI3
aI2
aI2
aI2
aI0
aI10
aI3
aI0
aI0
aI0
aI0
aI0
aI0
aI0
aI0
aI0
aI0
aI0
aI0
aI0
aI0
aI0
asS'PursueBehavior'
p17
(lp18
I104
aI99
aI43
aI30
aI91
aI132
aI163
aI207
aI2
aI69
aI59
aI159
aI34
aI194
aI6
aI30
aI18
aI13
aI32
aI45
aI297
aI39
aI87
aI46
aI26
aI19
aI47
aI32
aI13
aI100
aI28
aI31
aI9
aI159
aI46
aI125
aI44
aI52
aI26
aI44
aI21
aI7
aI77
aI175
aI62
aI36
aI184
aI69
aI233
aI25
aI33
aI27
aI142
aI35
aI113
aI39
aI94
aI5
aI105
aI69
aI40
aI123
aI25
aI7
aI28
aI80
aI23
aI38
aI13
aI57
aI54
aI116
aI197
aI36
aI58
aI70
aI52
aI54
aI157
aI156
aI13
aI58
aI65
aI68
aI37
aI130
aI99
aI77
aI55
aI196
aI60
aI109
aI294
aI64
aI159
aI60
aI34
aI28
aI68
aI50
aI84
aI47
aI112
aI133
aI128
aI43
aI63
aI87
aI53
aI62
aI45
aI6
aI120
aI30
aI6
asS'SeekBehavior'
p19
(lp20
I182
aI2
aI5
aI36
aI1
aI15
aI102
aI31
aI121
aI156
aI17
aI27
aI14
aI187
aI65
aI65
aI48
aI115
aI47
aI2
aI9
aI67
aI27
aI67
aI65
aI23
aI43
aI30
aI77
aI216
aI108
aI110
aI30
aI18
aI1
aI24
aI100
aI151
aI2
aI1
aI20
aI42
aI169
aI103
aI30
aI17
aI189
aI37
aI215
aI3
aI101
aI39
aI181
aI35
aI4
aI1
aI10
aI2
aI6
aI3
aI0
aI3
aI3
aI73
aI1
aI9
aI2
aI1
aI10
aI119
aI1
aI5
aI13
aI1
aI21
aI43
aI1
aI1
aI8
aI20
aI37
aI32
aI94
aI43
aI22
aI143
aI9
aI58
aI29
aI32
aI52
aI10
aI155
aI65
aI29
aI5
aI14
aI11
aI107
aI37
aI32
aI22
aI135
aI63
aI110
aI31
aI240
aI182
aI104
aI34
aI119
aI27
aI226
aI28
aI55
assI3
(dp21
S'FleeBehavior'
p22
(lp23
I100
aI54
aI34
aI67
aI10
aI28
aI75
aI51
aI4
aI39
aI10
aI51
aI18
aI167
aI1
aI19
aI8
aI34
aI4
aI2
aI30
aI14
aI28
aI36
aI21
aI15
aI13
aI22
aI13
aI108
aI29
aI57
aI36
aI72
aI7
aI61
aI56
aI24
aI3
aI3
aI14
aI5
aI51
aI85
aI110
aI23
aI169
aI13
aI149
aI35
aI134
aI42
aI137
aI21
aI25
aI18
aI40
aI24
aI15
aI50
aI7
aI19
aI14
aI25
aI25
aI67
aI49
aI16
aI6
aI67
aI11
aI53
aI16
aI7
aI17
aI27
aI10
aI11
aI50
aI52
aI22
aI21
aI95
aI25
aI22
aI109
aI68
aI137
aI14
aI97
aI32
aI42
aI125
aI54
aI24
aI24
aI11
aI17
aI67
aI5
aI16
aI4
aI66
aI30
aI83
aI8
aI58
aI32
aI12
aI9
aI11
aI29
aI31
aI22
aI22
asS'PursueBehavior'
p24
(lp25
I152
aI22
aI3
aI29
aI75
aI97
aI76
aI156
aI96
aI78
aI3
aI29
aI13
aI99
aI69
aI69
aI61
aI74
aI37
aI27
aI91
aI41
aI6
aI7
aI33
aI5
aI6
aI7
aI79
aI228
aI122
aI58
aI19
aI44
aI3
aI39
aI14
aI128
aI4
aI5
aI3
aI2
aI24
aI70
aI14
aI26
aI35
aI2
aI148
aI7
aI24
aI19
aI110
aI4
aI10
aI3
aI8
aI3
aI7
aI6
aI33
aI80
aI44
aI53
aI46
aI32
aI8
aI18
aI26
aI29
aI10
aI8
aI51
aI19
aI25
aI52
aI3
aI2
aI4
aI42
aI14
aI42
aI13
aI12
aI3
aI38
aI20
aI10
aI12
aI30
aI52
aI4
aI106
aI10
aI29
aI18
aI5
aI8
aI23
aI3
aI3
aI2
aI7
aI49
aI3
aI4
aI5
aI59
aI2
aI4
aI63
aI3
aI31
aI8
aI3
asS'SeekBehavior'
p26
(lp27
I85
aI27
aI27
aI38
aI10
aI37
aI198
aI68
aI27
aI114
aI78
aI120
aI107
aI142
aI3
aI9
aI2
aI30
aI55
aI21
aI198
aI94
aI92
aI81
aI41
aI25
aI71
aI33
aI1
aI46
aI2
aI33
aI2
aI71
aI39
aI80
aI78
aI58
aI83
aI77
aI56
aI45
aI191
aI234
aI7
aI5
aI230
aI105
aI212
aI3
aI16
aI4
aI156
aI63
aI94
aI33
aI124
aI30
aI134
aI98
aI1
aI32
aI2
aI3
aI0
aI31
aI9
aI7
aI23
aI84
aI34
aI67
aI215
aI24
aI63
aI72
aI43
aI46
aI114
aI85
aI17
aI33
aI59
aI84
aI44
aI157
aI35
aI19
aI66
aI131
aI73
aI82
aI355
aI68
aI137
aI24
aI34
aI14
aI95
aI82
aI97
aI63
aI174
aI117
aI152
aI62
aI240
aI177
aI142
aI82
aI90
aI1
aI284
aI28
aI36
asss.