(dp0
S'learn_scores'
p1
(lp2
F-379.0
aF-441.0
aF-517.0
aF-486.0
aF-490.0
aF-489.0
aF-339.0
aF-385.0
aF-432.0
aF-469.0
aF-441.0
aF-366.0
aF-425.0
aF-478.0
aF-512.0
aF-560.0
aF-445.0
aF-439.0
aF-479.0
aF-422.0
aF-225.0
aF-462.0
aF-431.0
aF-483.0
aF-390.0
aF-544.0
aF-417.0
aF-447.0
aF-314.0
aF-433.0
aF-341.0
aF-459.0
aF-467.0
aF-593.0
aF-471.0
aF-434.0
aF-439.0
aF-423.0
aF-469.0
aF-505.0
aF-463.0
aF-478.0
aF-486.0
aF-436.0
aF-478.0
aF-530.0
aF-375.0
aF-477.0
aF-451.0
aF-404.0
aF-430.0
aF-353.0
aF-508.0
aF-487.0
aF-358.0
aF-387.0
aF-495.0
aF-432.0
aF-511.0
aF-551.0
aF-416.0
aF-492.0
aF-440.0
aF-468.0
aF-503.0
aF-484.0
aF-454.0
aF-489.0
aF-460.0
aF-391.0
aF-493.0
aF-474.0
aF-460.0
aF-393.0
aF-486.0
aF-457.0
aF-695.0
aF-405.0
aF-477.0
aF-534.0
aF-418.0
aF-444.0
aF-513.0
aF-477.0
aF-460.0
aF-429.0
aF-506.0
aF-551.0
aF-397.0
aF-461.0
aF-495.0
aF-493.0
aF-493.0
aF-492.0
aF-415.0
aF-504.0
aF-452.0
aF-479.0
aF-361.0
aF-486.0
asS'test_scores'
p3
(lp4
F-468.0
aF-482.0
aF-491.0
aF-473.0
aF-490.0
aF-443.0
aF-518.0
aF-433.0
aF-449.0
aF-345.0
aF-649.0
aF-466.0
aF-336.0
aF-480.0
aF-386.0
asS'behavior_count'
p5
(dp6
I1
(dp7
S'FleeBehavior'
p8
(lp9
I16
aI38
aI58
aI3
aI1
aI13
aI81
aI54
aI24
aI1
aI4
aI2
aI4
aI1
aI40
aI153
aI4
aI5
aI19
aI2
aI2
aI6
aI20
aI1
aI19
aI53
aI0
aI88
aI65
aI3
aI37
aI29
aI6
aI72
aI2
aI3
aI4
aI38
aI2
aI106
aI2
aI1
aI3
aI3
aI3
aI12
aI10
aI2
aI4
aI4
aI8
aI7
aI4
aI1
aI12
aI10
aI3
aI4
aI9
aI138
aI8
aI4
aI3
aI4
aI6
aI3
aI6
aI3
aI12
aI3
aI3
aI0
aI1
aI2
aI2
aI7
aI94
aI27
aI1
aI3
aI2
aI3
aI4
aI0
aI3
aI3
aI5
aI3
aI7
aI6
aI4
aI4
aI5
aI2
aI4
aI3
aI9
aI1
aI8
aI1
aI19
aI117
aI25
aI24
aI113
aI67
aI160
aI10
aI45
aI52
aI273
aI6
aI99
aI1
aI157
asS'PursueBehavior'
p10
(lp11
I123
aI183
aI58
aI2
aI1
aI0
aI65
aI55
aI27
aI2
aI25
aI54
aI21
aI54
aI130
aI72
aI7
aI4
aI25
aI1
aI17
aI7
aI18
aI39
aI108
aI62
aI3
aI119
aI13
aI1
aI43
aI62
aI3
aI48
aI26
aI21
aI14
aI185
aI1
aI96
aI10
aI59
aI48
aI127
aI96
aI215
aI56
aI26
aI39
aI68
aI95
aI130
aI95
aI18
aI94
aI73
aI34
aI33
aI64
aI149
aI3
aI36
aI59
aI41
aI82
aI60
aI82
aI9
aI199
aI101
aI23
aI0
aI2
aI14
aI4
aI2
aI53
aI19
aI29
aI77
aI29
aI64
aI70
aI42
aI42
aI33
aI80
aI114
aI90
aI65
aI82
aI89
aI56
aI42
aI61
aI76
aI197
aI39
aI115
aI35
aI17
aI85
aI9
aI4
aI6
aI12
aI27
aI17
aI11
aI0
aI53
aI9
aI21
aI1
aI3
asS'SeekBehavior'
p12
(lp13
I21
aI30
aI102
aI92
aI48
aI87
aI213
aI36
aI81
aI37
aI43
aI20
aI60
aI3
aI72
aI75
aI55
aI141
aI55
aI60
aI167
aI120
aI114
aI4
aI43
aI200
aI44
aI291
aI76
aI39
aI152
aI109
aI109
aI143
aI24
aI30
aI52
aI221
aI56
aI184
aI32
aI18
aI16
aI37
aI20
aI144
aI130
aI150
aI59
aI23
aI47
aI96
aI110
aI29
aI62
aI175
aI39
aI26
aI138
aI264
aI55
aI93
aI9
aI43
aI46
aI32
aI37
aI48
aI110
aI98
aI68
aI45
aI48
aI38
aI41
aI39
aI268
aI49
aI17
aI54
aI8
aI58
aI20
aI36
aI15
aI23
aI32
aI65
aI30
aI61
aI60
aI90
aI22
aI89
aI21
aI36
aI76
aI39
aI89
aI51
aI82
aI280
aI88
aI45
aI11
aI35
aI61
aI56
aI83
aI23
aI234
aI32
aI46
aI49
aI66
assI2
(dp14
S'FleeBehavior'
p15
(lp16
I18
aI73
aI53
aI35
aI9
aI1
aI39
aI60
aI4
aI1
aI1
aI9
aI2
aI3
aI23
aI75
aI4
aI4
aI4
aI0
aI21
aI6
aI5
aI1
aI7
aI11
aI0
aI33
aI7
aI2
aI7
aI5
aI2
aI9
aI2
aI0
aI0
aI28
aI5
aI107
aI0
aI3
aI5
aI4
aI0
aI52
aI27
aI19
aI33
aI16
aI5
aI35
aI56
aI7
aI65
aI45
aI3
aI5
aI25
aI188
aI1
aI8
aI5
aI4
aI3
aI4
aI2
aI2
aI8
aI10
aI0
aI0
aI1
aI3
aI3
aI1
aI13
aI0
aI2
aI4
aI1
aI12
aI32
aI19
aI17
aI3
aI50
aI56
aI5
aI64
aI75
aI57
aI39
aI60
aI55
aI37
aI36
aI46
aI33
aI58
aI67
aI217
aI54
aI50
aI12
aI84
aI213
aI5
aI86
aI49
aI234
aI2
aI86
aI2
aI62
asS'PursueBehavior'
p17
(lp18
I28
aI59
aI91
aI55
aI4
aI86
aI133
aI47
aI12
aI5
aI3
aI11
aI48
aI24
aI90
aI60
aI37
aI110
aI47
aI30
aI104
aI20
aI97
aI0
aI7
aI238
aI21
aI198
aI10
aI4
aI101
aI5
aI4
aI40
aI40
aI21
aI53
aI292
aI52
aI174
aI1
aI8
aI28
aI97
aI80
aI226
aI67
aI3
aI16
aI63
aI145
aI99
aI121
aI2
aI84
aI60
aI56
aI32
aI122
aI165
aI3
aI11
aI12
aI31
aI86
aI48
aI1
aI0
aI171
aI103
aI81
aI27
aI2
aI4
aI9
aI26
aI184
aI2
aI3
aI32
aI1
aI26
aI21
aI36
aI4
aI38
aI7
aI61
aI93
aI10
aI42
aI14
aI3
aI11
aI2
aI3
aI17
aI17
aI154
aI4
aI22
aI116
aI2
aI1
aI0
aI2
aI1
aI13
aI3
aI1
aI202
aI34
aI11
aI45
aI143
asS'SeekBehavior'
p19
(lp20
I114
aI119
aI74
aI6
aI37
aI12
aI187
aI38
aI116
aI34
aI68
aI56
aI35
aI31
aI129
aI165
aI25
aI35
aI48
aI33
aI60
aI107
aI49
aI42
aI156
aI66
aI26
aI267
aI137
aI37
aI123
aI190
aI112
aI214
aI9
aI33
aI16
aI123
aI2
aI105
aI42
aI67
aI34
aI66
aI39
aI93
aI102
aI156
aI53
aI16
aI0
aI99
aI32
aI38
aI19
aI152
aI16
aI26
aI64
aI198
aI62
aI114
aI54
aI53
aI45
aI42
aI122
aI57
aI142
aI88
aI13
aI17
aI47
aI47
aI35
aI20
aI218
aI93
aI42
aI98
aI37
aI87
aI41
aI22
aI39
aI18
aI60
aI64
aI29
aI58
aI29
aI112
aI41
aI61
aI29
aI75
aI229
aI16
aI24
aI24
aI29
aI149
aI66
aI22
aI118
aI27
aI34
aI65
aI50
aI25
aI123
aI10
aI69
aI4
aI21
assI3
(dp21
S'FleeBehavior'
p22
(lp23
I43
aI58
aI61
aI6
aI0
aI6
aI51
aI13
aI13
aI12
aI45
aI18
aI22
aI11
aI41
aI65
aI2
aI2
aI4
aI8
aI12
aI19
aI27
aI0
aI3
aI51
aI30
aI226
aI30
aI20
aI28
aI12
aI40
aI49
aI30
aI30
aI24
aI134
aI11
aI150
aI5
aI2
aI0
aI16
aI3
aI103
aI112
aI63
aI13
aI12
aI18
aI49
aI51
aI31
aI96
aI48
aI47
aI5
aI121
aI170
aI3
aI37
aI1
aI2
aI3
aI2
aI8
aI5
aI9
aI4
aI3
aI2
aI2
aI4
aI2
aI1
aI19
aI4
aI1
aI6
aI1
aI5
aI4
aI4
aI6
aI5
aI6
aI9
aI6
aI8
aI5
aI4
aI2
aI4
aI14
aI9
aI58
aI42
aI109
aI55
aI49
aI327
aI69
aI21
aI59
aI46
aI111
aI53
aI115
aI44
aI421
aI24
aI57
aI13
aI151
asS'PursueBehavior'
p24
(lp25
I28
aI129
aI51
aI4
aI1
aI4
aI108
aI92
aI106
aI9
aI15
aI53
aI57
aI15
aI97
aI54
aI45
aI113
aI47
aI28
aI77
aI38
aI35
aI4
aI91
aI91
aI3
aI90
aI69
aI3
aI178
aI110
aI19
aI56
aI9
aI8
aI2
aI174
aI1
aI64
aI31
aI30
aI44
aI107
aI21
aI97
aI11
aI61
aI1
aI23
aI6
aI58
aI72
aI4
aI22
aI68
aI10
aI3
aI10
aI108
aI7
aI34
aI47
aI73
aI60
aI45
aI37
aI31
aI143
aI149
aI14
aI18
aI17
aI31
aI1
aI0
aI29
aI7
aI3
aI6
aI13
aI5
aI5
aI5
aI7
aI4
aI5
aI8
aI7
aI6
aI8
aI10
aI48
aI46
aI24
aI13
aI86
aI13
aI6
aI10
aI0
aI4
aI3
aI4
aI2
aI0
aI3
aI1
aI1
aI3
aI2
aI0
aI36
aI0
aI2
asS'SeekBehavior'
p26
(lp27
I88
aI64
aI105
aI86
aI49
aI89
aI200
aI40
aI13
aI18
aI11
aI5
aI6
aI32
aI104
aI181
aI19
aI34
aI48
aI26
aI96
aI76
aI89
aI39
aI76
aI172
aI14
aI182
aI55
aI20
aI25
aI78
aI59
aI158
aI12
aI16
aI43
aI135
aI47
aI172
aI7
aI46
aI22
aI44
aI95
aI170
aI72
aI53
aI88
aI60
aI126
aI126
aI85
aI12
aI50
aI141
aI18
aI54
aI80
aI273
aI56
aI62
aI23
aI13
aI71
aI47
aI79
aI23
aI169
aI48
aI77
aI24
aI31
aI18
aI44
aI46
aI367
aI84
aI43
aI122
aI24
aI114
aI84
aI68
aI47
aI50
aI106
aI164
aI114
aI117
aI133
aI169
aI33
aI82
aI47
aI93
aI138
aI24
aI96
aI21
aI69
aI151
aI49
aI48
aI69
aI67
aI134
aI29
aI23
aI28
aI136
aI22
aI73
aI38
aI73
asss.